ccollections
OrderedDict
p0
((lp1
(lp2
F5.0
aF9631.0
aa(lp3
F13.0
aF7525.0
aa(lp4
F14.0
aF2671.0
aa(lp5
F15.0
aF3064.0
aa(lp6
F16.0
aF3214.0
aa(lp7
F17.0
aF5390.0
aa(lp8
F19.0
aF3539.0
aa(lp9
F20.0
aF5561.0
aa(lp10
F21.0
aF5123.0
aa(lp11
F22.0
aF3991.0
aa(lp12
F23.0
aF3871.0
aa(lp13
F24.0
aF12964.0
aa(lp14
F25.0
aF15895.0
aa(lp15
F26.0
aF20260.0
aa(lp16
F27.0
aF2727.0
aa(lp17
F28.0
aF3704.0
aa(lp18
F29.0
aF5184.0
aa(lp19
F30.0
aF3945.0
aa(lp20
F31.0
aF9925.0
aa(lp21
F32.0
aF3272.0
aa(lp22
F33.0
aF11224.0
aa(lp23
F34.0
aF11003.0
aa(lp24
F35.0
aF32016.0
aa(lp25
F36.0
aF18366.0
aa(lp26
F37.0
aF14571.0
aa(lp27
F42.0
aF3331.0
aa(lp28
F43.0
aF15770.0
aa(lp29
F44.0
aF12469.0
aa(lp30
F45.0
aF11705.0
aa(lp31
F46.0
aF5967.0
aa(lp32
F47.0
aF15840.0
aa(lp33
F48.0
aF12502.0
aa(lp34
F49.0
aF14859.0
aa(lp35
F50.0
aF9642.0
aa(lp36
F51.0
aF13841.0
aa(lp37
F52.0
aF19862.0
aa(lp38
F53.0
aF11116.0
aa(lp39
F54.0
aF4948.0
aa(lp40
F55.0
aF3218.0
aa(lp41
F56.0
aF11017.0
aa(lp42
F57.0
aF4841.0
aa(lp43
F58.0
aF7025.0
aa(lp44
F59.0
aF15655.0
aa(lp45
F60.0
aF7886.0
aa(lp46
F61.0
aF5250.0
aa(lp47
F62.0
aF6850.0
aa(lp48
F66.0
aF11996.0
aa(lp49
F67.0
aF11406.0
aa(lp50
F68.0
aF4153.0
aa(lp51
F69.0
aF11002.0
aa(lp52
F71.0
aF5750.0
aa(lp53
F72.0
aF5676.0
aa(lp54
F73.0
aF7706.0
aa(lp55
F74.0
aF10999.0
aa(lp56
F75.0
aF19801.0
aa(lp57
F76.0
aF26832.0
aa(lp58
F77.0
aF16011.0
aa(lp59
F80.0
aF8375.0
aa(lp60
F81.0
aF16110.0
aa(lp61
F84.0
aF4253.0
aa(lp62
F85.0
aF23878.0
aa(lp63
F86.0
aF3779.0
aa(lp64
F87.0
aF4632.0
aa(lp65
F88.0
aF5754.0
aa(lp66
F90.0
aF31617.0
aa(lp67
F91.0
aF28441.0
aa(lp68
F92.0
aF2916.0
aa(lp69
F93.0
aF5136.0
aa(lp70
F94.0
aF11606.0
aa(lp71
F97.0
aF23048.0
aa(lp72
F98.0
aF9147.0
aa(lp73
F99.0
aF12126.0
aa(lp74
F100.0
aF12289.0
aa(lp75
F106.0
aF4701.0
aa(lp76
F108.0
aF4103.0
aa(lp77
F109.0
aF2993.0
aa(lp78
F110.0
aF12388.0
aa(lp79
F111.0
aF4142.0
aa(lp80
F112.0
aF5333.0
aa(lp81
F113.0
aF3121.0
aa(lp82
F114.0
aF6337.0
aa(lp83
F115.0
aF6698.0
aa(lp84
F116.0
aF2259.0
aa(lp85
F117.0
aF4989.0
aa(lp86
F118.0
aF5637.0
aa(lp87
F119.0
aF1690.0
aa(lp88
F120.0
aF2520.0
aa(lp89
F121.0
aF1470.0
aa(lp90
F122.0
aF1789.0
aa(lp91
F123.0
aF5355.0
aa(lp92
F124.0
aF710.0
aa(lp93
F126.0
aF13143.0
aa(lp94
F127.0
aF633.0
aa(lp95
F128.0
aF5215.0
aa(lp96
F129.0
aF2092.0
aa(lp97
F130.0
aF6022.0
aa(lp98
F131.0
aF1170.0
aa(lp99
F132.0
aF302.0
aa(lp100
F134.0
aF7288.0
aa(lp101
F135.0
aF968.0
aa(lp102
F136.0
aF542.0
aa(lp103
F137.0
aF2816.0
aa(lp104
F138.0
aF2613.0
aa(lp105
F140.0
aF9790.0
aa(lp106
F141.0
aF9257.0
aa(lp107
F143.0
aF7636.0
aa(lp108
F144.0
aF6054.0
aa(lp109
F146.0
aF1921.0
aa(lp110
F147.0
aF1179.0
aa(lp111
F148.0
aF1058.0
aa(lp112
F149.0
aF1246.0
aa(lp113
F150.0
aF5280.0
aa(lp114
F152.0
aF4052.0
aa(lp115
F153.0
aF6132.0
aa(lp116
F154.0
aF3493.0
aa(lp117
F156.0
aF6168.0
aa(lp118
F157.0
aF7849.0
aa(lp119
F158.0
aF2969.0
aa(lp120
F159.0
aF1025.0
aa(lp121
F160.0
aF1282.0
aa(lp122
F162.0
aF2492.0
aa(lp123
F163.0
aF1396.0
aa(lp124
F164.0
aF8587.0
aa(lp125
F165.0
aF4580.0
aa(lp126
F166.0
aF2063.0
aa(lp127
F167.0
aF178.0
aa(lp128
F168.0
aF5368.0
aa(lp129
F169.0
aF2551.0
aa(lp130
F170.0
aF1351.0
aa(lp131
F171.0
aF376.0
aa(lp132
F173.0
aF10078.0
aa(lp133
F174.0
aF16531.0
aa(lp134
F175.0
aF4435.0
aa(lp135
F176.0
aF11360.0
aa(lp136
F177.0
aF16712.0
aa(lp137
F178.0
aF2281.0
aa(lp138
F179.0
aF1280.0
aa(lp139
F181.0
aF12800.0
aa(lp140
F183.0
aF3862.0
aa(lp141
F184.0
aF1241.0
aa(lp142
F185.0
aF1394.0
aa(lp143
F186.0
aF3146.0
aa(lp144
F188.0
aF2650.0
aa(lp145
F190.0
aF3657.0
aa(lp146
F191.0
aF6862.0
aa(lp147
F192.0
aF12242.0
aa(lp148
F193.0
aF258.0
aa(lp149
F194.0
aF6821.0
aa(lp150
F195.0
aF10297.0
aa(lp151
F196.0
aF6062.0
aa(lp152
F197.0
aF5262.0
aa(lp153
F198.0
aF5895.0
aa(lp154
F199.0
aF11351.0
aa(lp155
F200.0
aF301.0
aa(lp156
F201.0
aF205.0
aa(lp157
F202.0
aF1273.0
aa(lp158
F203.0
aF398.0
aa(lp159
F204.0
aF441.0
aa(lp160
F205.0
aF1210.0
aa(lp161
F206.0
aF1310.0
aa(lp162
F207.0
aF752.0
aa(lp163
F208.0
aF294.0
aa(lp164
F209.0
aF703.0
aa(lp165
F210.0
aF5390.0
aa(lp166
F211.0
aF9071.0
aa(lp167
F212.0
aF5210.0
aa(lp168
F213.0
aF1355.0
aa(lp169
F214.0
aF2427.0
aa(lp170
F215.0
aF1097.0
aa(lp171
F216.0
aF1956.0
aa(lp172
F217.0
aF2637.0
aa(lp173
F218.0
aF494.0
aa(lp174
F219.0
aF3176.0
aa(lp175
F220.0
aF8804.0
aa(lp176
F222.0
aF930.0
aa(lp177
F223.0
aF3193.0
aa(lp178
F224.0
aF2467.0
aa(lp179
F225.0
aF3158.0
aa(lp180
F226.0
aF2511.0
aa(lp181
F227.0
aF3885.0
aa(lp182
F228.0
aF1652.0
aa(lp183
F229.0
aF3830.0
aa(lp184
F230.0
aF3455.0
aa(lp185
F231.0
aF3120.0
aa(lp186
F232.0
aF4900.0
aa(lp187
F233.0
aF3332.0
aa(lp188
F234.0
aF1754.0
aa(lp189
F236.0
aF1157.0
aa(lp190
F237.0
aF1107.0
aa(lp191
F238.0
aF1419.0
aa(lp192
F239.0
aF1869.0
aa(lp193
F240.0
aF4288.0
aa(lp194
F241.0
aF3424.0
aa(lp195
F242.0
aF1905.0
aa(lp196
F243.0
aF1898.0
aa(lp197
F244.0
aF1922.0
aa(lp198
F245.0
aF2032.0
aa(lp199
F246.0
aF969.0
aa(lp200
F247.0
aF1649.0
aa(lp201
F248.0
aF1293.0
aa(lp202
F249.0
aF3707.0
aa(lp203
F250.0
aF2608.0
aa(lp204
F251.0
aF1708.0
aa(lp205
F252.0
aF1480.0
aa(lp206
F253.0
aF866.0
aa(lp207
F254.0
aF2596.0
aa(lp208
F255.0
aF7330.0
aa(lp209
F256.0
aF1337.0
aa(lp210
F257.0
aF1415.0
aa(lp211
F258.0
aF1251.0
aa(lp212
F259.0
aF978.0
aa(lp213
F260.0
aF1850.0
aa(lp214
F261.0
aF1862.0
aa(lp215
F262.0
aF170.0
aa(lp216
F263.0
aF407.0
aa(lp217
F264.0
aF2664.0
aa(lp218
F265.0
aF317.0
aa(lp219
F267.0
aF477.0
aa(lp220
F268.0
aF5553.0
aa(lp221
F271.0
aF102.0
aa(lp222
F272.0
aF433.0
aa(lp223
F273.0
aF2920.0
aa(lp224
F274.0
aF674.0
aa(lp225
F275.0
aF334.0
aa(lp226
F276.0
aF974.0
aa(lp227
F277.0
aF807.0
aa(lp228
F278.0
aF246.0
aa(lp229
F279.0
aF2018.0
aa(lp230
F280.0
aF469.0
aa(lp231
F281.0
aF63.0
aa(lp232
F282.0
aF1218.0
aa(lp233
F283.0
aF7384.0
aa(lp234
F284.0
aF5191.0
aa(lp235
F285.0
aF1086.0
aa(lp236
F286.0
aF3508.0
aa(lp237
F287.0
aF6832.0
aa(lp238
F288.0
aF1428.0
aa(lp239
F289.0
aF5106.0
aa(lp240
F290.0
aF766.0
aa(lp241
F291.0
aF3163.0
aa(lp242
F292.0
aF654.0
aa(lp243
F293.0
aF853.0
aa(lp244
F294.0
aF1167.0
aa(lp245
F295.0
aF852.0
aa(lp246
F296.0
aF1730.0
aa(lp247
F297.0
aF517.0
aa(lp248
F298.0
aF828.0
aa(lp249
F299.0
aF1567.0
aa(lp250
F300.0
aF2971.0
aa(lp251
F301.0
aF3047.0
aa(lp252
F302.0
aF1817.0
aa(lp253
F303.0
aF1936.0
aa(lp254
F304.0
aF2380.0
aa(lp255
F305.0
aF1087.0
aa(lp256
F306.0
aF1017.0
aa(lp257
F307.0
aF1409.0
aa(lp258
F308.0
aF840.0
aa(lp259
F309.0
aF884.0
aa(lp260
F310.0
aF1121.0
aa(lp261
F311.0
aF1766.0
aa(lp262
F312.0
aF362.0
aa(lp263
F313.0
aF3583.0
aa(lp264
F314.0
aF750.0
aa(lp265
F315.0
aF543.0
aa(lp266
F316.0
aF431.0
aa(lp267
F317.0
aF921.0
aa(lp268
F318.0
aF1285.0
aa(lp269
F319.0
aF1075.0
aa(lp270
F320.0
aF1152.0
aa(lp271
F321.0
aF3244.0
aa(lp272
F322.0
aF840.0
aa(lp273
F323.0
aF510.0
aa(lp274
F324.0
aF1257.0
aa(lp275
F325.0
aF1514.0
aa(lp276
F326.0
aF900.0
aa(lp277
F327.0
aF1887.0
aa(lp278
F328.0
aF2399.0
aa(lp279
F329.0
aF1530.0
aa(lp280
F330.0
aF776.0
aa(lp281
F331.0
aF1349.0
aa(lp282
F332.0
aF1760.0
aa(lp283
F333.0
aF968.0
aa(lp284
F334.0
aF2056.0
aa(lp285
F335.0
aF48.0
aa(lp286
F336.0
aF39.0
aa(lp287
F337.0
aF1874.0
aa(lp288
F338.0
aF2409.0
aa(lp289
F339.0
aF391.0
aa(lp290
F340.0
aF1485.0
aa(lp291
F341.0
aF2053.0
aa(lp292
F342.0
aF754.0
aa(lp293
F343.0
aF431.0
aa(lp294
F344.0
aF1157.0
aa(lp295
F345.0
aF427.0
aa(lp296
F346.0
aF1036.0
aa(lp297
F347.0
aF410.0
aa(lp298
F348.0
aF543.0
aa(lp299
F349.0
aF836.0
aa(lp300
F350.0
aF2073.0
aa(lp301
F351.0
aF528.0
aatp302
Rp303
.