ccollections
OrderedDict
p0
((lp1
(lp2
I91
a(lp3
S'Clinton St & Washington Blvd'
p4
acdecimal
Decimal
p5
(S'41.88338000000000000'
p6
tp7
Rp8
ag5
(S'-87.64117000000000000'
p9
tp10
Rp11
aaa(lp12
I85
a(lp13
S'Michigan Ave & Oak St'
p14
ag5
(S'41.90096039000000000'
p15
tp16
Rp17
ag5
(S'-87.62377664000000000'
p18
tp19
Rp20
aaa(lp21
I88
a(lp22
S'May St & Randolph St'
p23
ag5
(S'41.88397000000000000'
p24
tp25
Rp26
ag5
(S'-87.65568800000000000'
p27
tp28
Rp29
aaa(lp30
I17
a(lp31
S'Wood St & Division St'
p32
ag5
(S'41.90332000000000000'
p33
tp34
Rp35
ag5
(S'-87.67273000000000000'
p36
tp37
Rp38
aaa(lp39
I28
a(lp40
S'Larrabee St & Menomonee St'
p41
ag5
(S'41.91468000000000000'
p42
tp43
Rp44
ag5
(S'-87.64332000000000000'
p45
tp46
Rp47
aaa(lp48
I45
a(lp49
S'Michigan Ave & Congress Pkwy'
p50
ag5
(S'41.87606560000000000'
p51
tp52
Rp53
ag5
(S'-87.62443336000000000'
p54
tp55
Rp56
aaa(lp57
I61
a(lp58
S'Wood St & Milwaukee Ave'
p59
ag5
(S'41.90765500000000000'
p60
tp61
Rp62
ag5
(S'-87.67255200000000000'
p63
tp64
Rp65
aaa(lp66
I32
a(lp67
S'Racine Ave & Congress Pkwy'
p68
ag5
(S'41.87464000000000000'
p69
tp70
Rp71
ag5
(S'-87.65703000000000000'
p72
tp73
Rp74
aaa(lp75
I68
a(lp76
S'Clinton St & Tilden St'
p77
ag5
(S'41.87588500000000000'
p78
tp79
Rp80
ag5
(S'-87.64079500000000000'
p81
tp82
Rp83
aaa(lp84
I19
a(lp85
S'Loomis St & Taylor St'
p86
ag5
(S'41.86941700000000000'
p87
tp88
Rp89
ag5
(S'-87.66099600000000000'
p90
tp91
Rp92
aaa(lp93
I34
a(lp94
S'Cannon Dr & Fullerton Ave'
p95
ag5
(S'41.92675599000000000'
p96
tp97
Rp98
ag5
(S'-87.63442878000000000'
p99
tp100
Rp101
aaa(lp102
I349
a(lp103
S'Halsted St & Wrightwood Ave'
p104
ag5
(S'41.92914300000000000'
p105
tp106
Rp107
ag5
(S'-87.64907700000000000'
p108
tp109
Rp110
aaa(lp111
I320
a(lp112
S'Loomis St & Lexington St'
p113
ag5
(S'41.87218700000000000'
p114
tp115
Rp116
ag5
(S'-87.66150100000000000'
p117
tp118
Rp119
aaa(lp120
I55
a(lp121
S'Halsted St & James M Rochford St'
p122
ag5
(S'41.86586100000000000'
p123
tp124
Rp125
ag5
(S'-87.64661100000000000'
p126
tp127
Rp128
aaa(lp129
I42
a(lp130
S'Wabash Ave & Cermak Rd'
p131
ag5
(S'41.85323876000000000'
p132
tp133
Rp134
ag5
(S'-87.62533709000000000'
p135
tp136
Rp137
aaa(lp138
I36
a(lp139
S'Franklin St & Jackson Blvd'
p140
ag5
(S'41.87770796000000000'
p141
tp142
Rp143
ag5
(S'-87.63532114000000000'
p144
tp145
Rp146
aaa(lp147
I81
a(lp148
S'Daley Center Plaza'
p149
ag5
(S'41.88433700000000000'
p150
tp151
Rp152
ag5
(S'-87.63018300000000000'
p153
tp154
Rp155
aaa(lp156
I340
a(lp157
S'Clark St & Wrightwood Ave'
p158
ag5
(S'41.92954600000000000'
p159
tp160
Rp161
ag5
(S'-87.64311800000000000'
p162
tp163
Rp164
aaa(lp165
I37
a(lp166
S'Dearborn St & Adams St'
p167
ag5
(S'41.87935636000000000'
p168
tp169
Rp170
ag5
(S'-87.62979104000000000'
p171
tp172
Rp173
aaa(lp174
I44
a(lp175
S'State St & Randolph St'
p176
ag5
(S'41.88473020000000000'
p177
tp178
Rp179
ag5
(S'-87.62773357000000000'
p180
tp181
Rp182
aaa(lp183
I94
a(lp184
S'Lincoln Ave & Armitage Ave'
p185
ag5
(S'41.91827300000000000'
p186
tp187
Rp188
ag5
(S'-87.63811600000000000'
p189
tp190
Rp191
aaa(lp192
I76
a(lp193
S'Lake Shore Dr & Monroe St'
p194
ag5
(S'41.88105000000000000'
p195
tp196
Rp197
ag5
(S'-87.61697000000000000'
p198
tp199
Rp200
aaa(lp201
I90
a(lp202
S'Millennium Park'
p203
ag5
(S'41.88103170000000000'
p204
tp205
Rp206
ag5
(S'-87.62408432000000000'
p207
tp208
Rp209
aaa(lp210
I52
a(lp211
S'Michigan Ave & Lake St'
p212
ag5
(S'41.88605812000000000'
p213
tp214
Rp215
ag5
(S'-87.62428934000000000'
p216
tp217
Rp218
aaa(lp219
I51
a(lp220
S'Clark St & Randolph St'
p221
ag5
(S'41.88457623000000000'
p222
tp223
Rp224
ag5
(S'-87.63188991000000000'
p225
tp226
Rp227
aaa(lp228
I190
a(lp229
S'Southport Ave & Wrightwood Ave'
p230
ag5
(S'41.92888000000000000'
p231
tp232
Rp233
ag5
(S'-87.66317000000000000'
p234
tp235
Rp236
aaa(lp237
I24
a(lp238
S'Fairbanks Ct & Grand Ave'
p239
ag5
(S'41.89186000000000000'
p240
tp241
Rp242
ag5
(S'-87.62062000000000000'
p243
tp244
Rp245
aaa(lp246
I54
a(lp247
S'Ogden Ave & Chicago Ave'
p248
ag5
(S'41.89636246000000000'
p249
tp250
Rp251
ag5
(S'-87.65406127000000000'
p252
tp253
Rp254
aaa(lp255
I20
a(lp256
S'Sheffield Ave & Kingsbury St'
p257
ag5
(S'41.90959193000000000'
p258
tp259
Rp260
ag5
(S'-87.65349723000000000'
p261
tp262
Rp263
aaa(lp264
I31
a(lp265
S'Franklin St & Chicago Ave'
p266
ag5
(S'41.89680204000000000'
p267
tp268
Rp269
ag5
(S'-87.63563839000000000'
p270
tp271
Rp272
aaa(lp273
I74
a(lp274
S'Kingsbury St & Erie St'
p275
ag5
(S'41.89384315000000000'
p276
tp277
Rp278
ag5
(S'-87.64185116000000000'
p279
tp280
Rp281
aaa(lp282
I77
a(lp283
S'Clinton St & Madison St'
p284
ag5
(S'41.88158240000000000'
p285
tp286
Rp287
ag5
(S'-87.64127743000000000'
p288
tp289
Rp290
aaa(lp291
I69
a(lp292
S'Damen Ave & Pierce Ave'
p293
ag5
(S'41.90939601000000000'
p294
tp295
Rp296
ag5
(S'-87.67769193000000000'
p297
tp298
Rp299
aaa(lp300
I60
a(lp301
S'Dayton St & North Ave'
p302
ag5
(S'41.91057803000000000'
p303
tp304
Rp305
ag5
(S'-87.64942193000000000'
p306
tp307
Rp308
aaa(lp309
I59
a(lp310
S'Wabash Ave & Roosevelt Rd'
p311
ag5
(S'41.86717300000000000'
p312
tp313
Rp314
ag5
(S'-87.62595501000000000'
p315
tp316
Rp317
aaa(lp318
I67
a(lp319
S'Sheffield Ave & Fullerton Ave'
p320
ag5
(S'41.92560188000000000'
p321
tp322
Rp323
ag5
(S'-87.65370804000000000'
p324
tp325
Rp326
aaa(lp327
I73
a(lp328
S'Jefferson St & Monroe St'
p329
ag5
(S'41.88042200000000000'
p330
tp331
Rp332
ag5
(S'-87.64274600000000000'
p333
tp334
Rp335
aaa(lp336
I29
a(lp337
S'Noble St & Milwaukee Ave'
p338
ag5
(S'41.90068000000000000'
p339
tp340
Rp341
ag5
(S'-87.66260000000000000'
p342
tp343
Rp344
aaa(lp345
I311
a(lp346
S'Lincoln Ave & Eastwood Ave'
p347
ag5
(S'41.96583000000000000'
p348
tp349
Rp350
ag5
(S'-87.68651000000000000'
p351
tp352
Rp353
aaa(lp354
I72
a(lp355
S'State St & 16th St'
p356
ag5
(S'41.86012138000000000'
p357
tp358
Rp359
ag5
(S'-87.62772919000000000'
p360
tp361
Rp362
aaa(lp363
I75
a(lp364
S'Canal St & Jackson Blvd'
p365
ag5
(S'41.87811421000000000'
p366
tp367
Rp368
ag5
(S'-87.63997112000000000'
p369
tp370
Rp371
aaa(lp372
I48
a(lp373
S'Larrabee St & Kingsbury St'
p374
ag5
(S'41.89776400000000000'
p375
tp376
Rp377
ag5
(S'-87.64288400000000000'
p378
tp379
Rp380
aaa(lp381
I16
a(lp382
S'Wood St & North Ave'
p383
ag5
(S'41.91032900000000000'
p384
tp385
Rp386
ag5
(S'-87.67251600000000000'
p387
tp388
Rp389
aaa(lp390
I108
a(lp391
S'Halsted St & Polk St'
p392
ag5
(S'41.87184000000000000'
p393
tp394
Rp395
ag5
(S'-87.64664000000000000'
p396
tp397
Rp398
aaa(lp399
I5
a(lp400
S'State St & Harrison St'
p401
ag5
(S'41.87395806000000000'
p402
tp403
Rp404
ag5
(S'-87.62773949000000000'
p405
tp406
Rp407
aaa(lp408
I30
a(lp409
S'Ashland Ave & Augusta Blvd'
p410
ag5
(S'41.89964300000000000'
p411
tp412
Rp413
ag5
(S'-87.66770000000000000'
p414
tp415
Rp416
aaa(lp417
I26
a(lp418
S'McClurg Ct & Illinois St'
p419
ag5
(S'41.89102000000000000'
p420
tp421
Rp422
ag5
(S'-87.61730000000000000'
p423
tp424
Rp425
aaa(lp426
I25
a(lp427
S'Michigan Ave & Pearson St'
p428
ag5
(S'41.89766000000000000'
p429
tp430
Rp431
ag5
(S'-87.62351000000000000'
p432
tp433
Rp434
aaa(lp435
I15
a(lp436
S'Racine Ave & 18th St'
p437
ag5
(S'41.85818061000000000'
p438
tp439
Rp440
ag5
(S'-87.65648665000000000'
p441
tp442
Rp443
aaa(lp444
I66
a(lp445
S'Clinton St & Lake St'
p446
ag5
(S'41.88583274000000000'
p447
tp448
Rp449
ag5
(S'-87.64138231000000000'
p450
tp451
Rp452
aaa(lp453
I166
a(lp454
S'Ashland Ave & Wrightwood Ave'
p455
ag5
(S'41.92883000000000000'
p456
tp457
Rp458
ag5
(S'-87.66850700000000000'
p459
tp460
Rp461
aaa(lp462
I21
a(lp463
S'Aberdeen St & Jackson Blvd'
p464
ag5
(S'41.87772613000000000'
p465
tp466
Rp467
ag5
(S'-87.65478743000000000'
p468
tp469
Rp470
aaa(lp471
I58
a(lp472
S'Ashland Ave & Armitage Ave'
p473
ag5
(S'41.91785887000000000'
p474
tp475
Rp476
ag5
(S'-87.66891900000000000'
p477
tp478
Rp479
aaa(lp480
I350
a(lp481
S'Ashland Ave & Chicago Ave'
p482
ag5
(S'41.89596600000000000'
p483
tp484
Rp485
ag5
(S'-87.66774700000000000'
p486
tp487
Rp488
aaa(lp489
I22
a(lp490
S'May St & Taylor St'
p491
ag5
(S'41.86948210000000000'
p492
tp493
Rp494
ag5
(S'-87.65548640000000000'
p495
tp496
Rp497
aaa(lp498
I251
a(lp499
S'Clarendon Ave & Leland Ave'
p500
ag5
(S'41.96796800000000000'
p501
tp502
Rp503
ag5
(S'-87.65000100000000000'
p504
tp505
Rp506
aaa(lp507
I46
a(lp508
S'Wells St & Walton St'
p509
ag5
(S'41.89993001000000000'
p510
tp511
Rp512
ag5
(S'-87.63443007000000000'
p513
tp514
Rp515
aaa(lp516
I27
a(lp517
S'Larrabee St & North Ave'
p518
ag5
(S'41.91021000000000000'
p519
tp520
Rp521
ag5
(S'-87.64350000000000000'
p522
tp523
Rp524
aaa(lp525
I341
a(lp526
S'Adler Planetarium'
p527
ag5
(S'41.86609500000000000'
p528
tp529
Rp530
ag5
(S'-87.60726700000000000'
p531
tp532
Rp533
aaa(lp534
I149
a(lp535
S'Calumet Ave & 33rd St'
p536
ag5
(S'41.83490000000000000'
p537
tp538
Rp539
ag5
(S'-87.61793000000000000'
p540
tp541
Rp542
aaa(lp543
I127
a(lp544
S'Lincoln Ave & Fullerton Ave'
p545
ag5
(S'41.92590500000000000'
p546
tp547
Rp548
ag5
(S'-87.64926000000000000'
p549
tp550
Rp551
aaa(lp552
I164
a(lp553
S'Franklin St & Lake St'
p554
ag5
(S'41.88583700000000000'
p555
tp556
Rp557
ag5
(S'-87.63550000000000000'
p558
tp559
Rp560
aaa(lp561
I279
a(lp562
S'Halsted St & 35th St'
p563
ag5
(S'41.83066100000000000'
p564
tp565
Rp566
ag5
(S'-87.64717200000000000'
p567
tp568
Rp569
aaa(lp570
I252
a(lp571
S'Greenwood Ave & 47th St'
p572
ag5
(S'41.80983500000000000'
p573
tp574
Rp575
ag5
(S'-87.59938300000000000'
p576
tp577
Rp578
aaa(lp579
I232
a(lp580
S'Pine Grove Ave & Addison St'
p581
ag5
(S'41.94783600000000000'
p582
tp583
Rp584
ag5
(S'-87.64541600000000000'
p585
tp586
Rp587
aaa(lp588
I351
a(lp589
S'Cottage Grove Ave & 51st St'
p590
ag5
(S'41.80303800000000000'
p591
tp592
Rp593
ag5
(S'-87.60661500000000000'
p594
tp595
Rp596
aaa(lp597
I62
a(lp598
S'McCormick Place'
p599
ag5
(S'41.85137517000000000'
p600
tp601
Rp602
ag5
(S'-87.61883465000000000'
p603
tp604
Rp605
aaa(lp606
I99
a(lp607
S'Lake Shore Dr & Ohio St'
p608
ag5
(S'41.89257000000000000'
p609
tp610
Rp611
ag5
(S'-87.61449200000000000'
p612
tp613
Rp614
aaa(lp615
I84
a(lp616
S'Green St & Milwaukee Ave'
p617
ag5
(S'41.89173300000000000'
p618
tp619
Rp620
ag5
(S'-87.64872700000000000'
p621
tp622
Rp623
aaa(lp624
I56
a(lp625
S'Desplaines St & Kinzie St'
p626
ag5
(S'41.88871604000000000'
p627
tp628
Rp629
ag5
(S'-87.64444785000000000'
p630
tp631
Rp632
aaa(lp633
I50
a(lp634
S'Clark St & Congress Pkwy'
p635
ag5
(S'41.87593267000000000'
p636
tp637
Rp638
ag5
(S'-87.63058454000000000'
p639
tp640
Rp641
aaa(lp642
I250
a(lp643
S'Ashland Ave & Wellington Ave'
p644
ag5
(S'41.93608300000000000'
p645
tp646
Rp647
ag5
(S'-87.66980700000000000'
p648
tp649
Rp650
aaa(lp651
I262
a(lp652
S'Halsted St & 37th St'
p653
ag5
(S'41.82707100000000000'
p654
tp655
Rp656
ag5
(S'-87.64580100000000000'
p657
tp658
Rp659
aaa(lp660
I97
a(lp661
S'Museum Campus'
p662
ag5
(S'41.86521200000000000'
p663
tp664
Rp665
ag5
(S'-87.61775900000000000'
p666
tp667
Rp668
aaa(lp669
I57
a(lp670
S'Clinton St & Roosevelt Rd'
p671
ag5
(S'41.86711778000000000'
p672
tp673
Rp674
ag5
(S'-87.64108796000000000'
p675
tp676
Rp677
aaa(lp678
I43
a(lp679
S'Michigan Ave & Washington St'
p680
ag5
(S'41.88389277000000000'
p681
tp682
Rp683
ag5
(S'-87.62464914000000000'
p684
tp685
Rp686
aaa(lp687
I33
a(lp688
S'State St & Van Buren St'
p689
ag5
(S'41.87718100000000000'
p690
tp691
Rp692
ag5
(S'-87.62784400000000000'
p693
tp694
Rp695
aaa(lp696
I47
a(lp697
S'State St & Kinzie St'
p698
ag5
(S'41.88918000000000000'
p699
tp700
Rp701
ag5
(S'-87.62770000000000000'
p702
tp703
Rp704
aaa(lp705
I322
a(lp706
S'Kimbark Ave & 53rd St'
p707
ag5
(S'41.79956800000000000'
p708
tp709
Rp710
ag5
(S'-87.59474700000000000'
p711
tp712
Rp713
aaa(lp714
I14
a(lp715
S'Morgan St & 18th St'
p716
ag5
(S'41.85808600000000000'
p717
tp718
Rp719
ag5
(S'-87.65107300000000000'
p720
tp721
Rp722
aaa(lp723
I87
a(lp724
S'Racine Ave & Fullerton Ave'
p725
ag5
(S'41.92556258000000000'
p726
tp727
Rp728
ag5
(S'-87.65840426000000000'
p729
tp730
Rp731
aaa(lp732
I300
a(lp733
S'Broadway & Barry Ave'
p734
ag5
(S'41.93773900000000000'
p735
tp736
Rp737
ag5
(S'-87.64409400000000000'
p738
tp739
Rp740
aaa(lp741
I71
a(lp742
S'Morgan St & Lake St'
p743
ag5
(S'41.88548331000000000'
p744
tp745
Rp746
ag5
(S'-87.65230486000000000'
p747
tp748
Rp749
aaa(lp750
I255
a(lp751
S'Indiana Ave & Roosevelt Rd'
p752
ag5
(S'41.86788800000000000'
p753
tp754
Rp755
ag5
(S'-87.62304100000000000'
p756
tp757
Rp758
aaa(lp759
I23
a(lp760
S'Orleans St & Elm St'
p761
ag5
(S'41.90292400000000000'
p762
tp763
Rp764
ag5
(S'-87.63771500000000000'
p765
tp766
Rp767
aaa(lp768
I249
a(lp769
S'Montrose Harbor'
p770
ag5
(S'41.96398200000000000'
p771
tp772
Rp773
ag5
(S'-87.63818100000000000'
p774
tp775
Rp776
aaa(lp777
I244
a(lp778
S'Ravenswood Ave & Irving Park Rd'
p779
ag5
(S'41.95469000000000000'
p780
tp781
Rp782
ag5
(S'-87.67393000000000000'
p783
tp784
Rp785
aaa(lp786
I93
a(lp787
S'Sheffield Ave & Willow St'
p788
ag5
(S'41.91368800000000000'
p789
tp790
Rp791
ag5
(S'-87.65285500000000000'
p792
tp793
Rp794
aaa(lp795
I49
a(lp796
S'Dearborn St & Monroe St'
p797
ag5
(S'41.88131982000000000'
p798
tp799
Rp800
ag5
(S'-87.62952092000000000'
p801
tp802
Rp803
aaa(lp804
I53
a(lp805
S'Wells St & Erie St'
p806
ag5
(S'41.89383200000000000'
p807
tp808
Rp809
ag5
(S'-87.63419500000000000'
p810
tp811
Rp812
aaa(lp813
I80
a(lp814
S'Aberdeen St & Madison St'
p815
ag5
(S'41.88148700000000000'
p816
tp817
Rp818
ag5
(S'-87.65475200000000000'
p819
tp820
Rp821
aaa(lp822
I121
a(lp823
S'Blackstone Ave & Hyde Park Blvd'
p824
ag5
(S'41.80256200000000000'
p825
tp826
Rp827
ag5
(S'-87.59036800000000000'
p828
tp829
Rp830
aaa(lp831
I220
a(lp832
S'Hampden Ct & Diversey Pkwy'
p833
ag5
(S'41.93262000000000000'
p834
tp835
Rp836
ag5
(S'-87.64238500000000000'
p837
tp838
Rp839
aaa(lp840
I13
a(lp841
S'Wilton Ave & Diversey Pkwy'
p842
ag5
(S'41.93250008000000000'
p843
tp844
Rp845
ag5
(S'-87.65268082000000000'
p846
tp847
Rp848
aaa(lp849
I181
a(lp850
S'LaSalle St & Illinois St'
p851
ag5
(S'41.89074900000000000'
p852
tp853
Rp854
ag5
(S'-87.63206000000000000'
p855
tp856
Rp857
aaa(lp858
I92
a(lp859
S'Carpenter St & Huron St'
p860
ag5
(S'41.89455600000000000'
p861
tp862
Rp863
ag5
(S'-87.65344900000000000'
p864
tp865
Rp866
aaa(lp867
I86
a(lp868
S'Eckhart Park'
p869
ag5
(S'41.89637337000000000'
p870
tp871
Rp872
ag5
(S'-87.66098386000000000'
p873
tp874
Rp875
aaa(lp876
I285
a(lp877
S'Wood St & Grand Ave'
p878
ag5
(S'41.89113000000000000'
p879
tp880
Rp881
ag5
(S'-87.67203000000000000'
p882
tp883
Rp884
aaa(lp885
I348
a(lp886
S'California Ave & 21st St'
p887
ag5
(S'41.85401600000000000'
p888
tp889
Rp890
ag5
(S'-87.69544500000000000'
p891
tp892
Rp893
aaa(lp894
I312
a(lp895
S'Clarendon Ave & Gordon Ter'
p896
ag5
(S'41.95787900000000000'
p897
tp898
Rp899
ag5
(S'-87.64951900000000000'
p900
tp901
Rp902
aaa(lp903
I112
a(lp904
S'Green St & Randolph St'
p905
ag5
(S'41.88407800000000000'
p906
tp907
Rp908
ag5
(S'-87.64868400000000000'
p909
tp910
Rp911
aaa(lp912
I179
a(lp913
S'Martin Luther King Dr & Oakwood Blvd'
p914
ag5
(S'41.82256000000000000'
p915
tp916
Rp917
ag5
(S'-87.61615000000000000'
p918
tp919
Rp920
aaa(lp921
I165
a(lp922
S'Clark St & Waveland Ave'
p923
ag5
(S'41.94893000000000000'
p924
tp925
Rp926
ag5
(S'-87.65775000000000000'
p927
tp928
Rp929
aaa(lp930
I328
a(lp931
S'Ellis Ave & 58th St'
p932
ag5
(S'41.78874600000000000'
p933
tp934
Rp935
ag5
(S'-87.60133400000000000'
p936
tp937
Rp938
aaa(lp939
I305
a(lp940
S'Western Ave & Division St'
p941
ag5
(S'41.90289300000000000'
p942
tp943
Rp944
ag5
(S'-87.68727500000000000'
p945
tp946
Rp947
aaa(lp948
I319
a(lp949
S'Greenview Ave & Diversey Pkwy'
p950
ag5
(S'41.93259500000000000'
p951
tp952
Rp953
ag5
(S'-87.66593900000000000'
p954
tp955
Rp956
aaa(lp957
I313
a(lp958
S'Lakeview Ave & Fullerton Pkwy'
p959
ag5
(S'41.92585800000000000'
p960
tp961
Rp962
ag5
(S'-87.63897300000000000'
p963
tp964
Rp965
aaa(lp966
I195
a(lp967
S'Columbus Dr & Randolph St'
p968
ag5
(S'41.88530000000000000'
p969
tp970
Rp971
ag5
(S'-87.62077000000000000'
p972
tp973
Rp974
aaa(lp975
I141
a(lp976
S'Clark St & Lincoln Ave'
p977
ag5
(S'41.91568900000000000'
p978
tp979
Rp980
ag5
(S'-87.63460000000000000'
p981
tp982
Rp983
aaa(lp984
I330
a(lp985
S'Lincoln Ave & Addison St'
p986
ag5
(S'41.94617600000000000'
p987
tp988
Rp989
ag5
(S'-87.67330800000000000'
p990
tp991
Rp992
aaa(lp993
I192
a(lp994
S'Canal St & Adams St'
p995
ag5
(S'41.87923000000000000'
p996
tp997
Rp998
ag5
(S'-87.64001500000000000'
p999
tp1000
Rp1001
aaa(lp1002
I188
a(lp1003
S'Greenview Ave & Fullerton Ave'
p1004
ag5
(S'41.92533000000000000'
p1005
tp1006
Rp1007
ag5
(S'-87.66580000000000000'
p1008
tp1009
Rp1010
aaa(lp1011
I98
a(lp1012
S'LaSalle St & Washington St'
p1013
ag5
(S'41.88266400000000000'
p1014
tp1015
Rp1016
ag5
(S'-87.63253000000000000'
p1017
tp1018
Rp1019
aaa(lp1020
I169
a(lp1021
S'Canal St & Harrison St'
p1022
ag5
(S'41.87433700000000000'
p1023
tp1024
Rp1025
ag5
(S'-87.63956600000000000'
p1026
tp1027
Rp1028
aaa(lp1029
I273
a(lp1030
S'Michigan Ave & 18th St'
p1031
ag5
(S'41.85793700000000000'
p1032
tp1033
Rp1034
ag5
(S'-87.62363300000000000'
p1035
tp1036
Rp1037
aaa(lp1038
I123
a(lp1039
S'California Ave & Milwaukee Ave'
p1040
ag5
(S'41.92269500000000000'
p1041
tp1042
Rp1043
ag5
(S'-87.69715300000000000'
p1044
tp1045
Rp1046
aaa(lp1047
I159
a(lp1048
S'Claremont Ave & Hirsch St'
p1049
ag5
(S'41.90778100000000000'
p1050
tp1051
Rp1052
ag5
(S'-87.68585400000000000'
p1053
tp1054
Rp1055
aaa(lp1056
I100
a(lp1057
S'Orleans St & Merchandise Mart Plaza'
p1058
ag5
(S'41.88824300000000000'
p1059
tp1060
Rp1061
ag5
(S'-87.63639000000000000'
p1062
tp1063
Rp1064
aaa(lp1065
I178
a(lp1066
S'State St & 19th St'
p1067
ag5
(S'41.85659400000000000'
p1068
tp1069
Rp1070
ag5
(S'-87.62754200000000000'
p1071
tp1072
Rp1073
aaa(lp1074
I115
a(lp1075
S'Sheffield Ave & Wellington Ave'
p1076
ag5
(S'41.93625300000000000'
p1077
tp1078
Rp1079
ag5
(S'-87.65356600000000000'
p1080
tp1081
Rp1082
aaa(lp1083
I170
a(lp1084
S'Clinton St & 18th St'
p1085
ag5
(S'41.85795000000000000'
p1086
tp1087
Rp1088
ag5
(S'-87.64082600000000000'
p1089
tp1090
Rp1091
aaa(lp1092
I134
a(lp1093
S'Peoria St & Jackson Blvd'
p1094
ag5
(S'41.87774900000000000'
p1095
tp1096
Rp1097
ag5
(S'-87.64963300000000000'
p1098
tp1099
Rp1100
aaa(lp1101
I150
a(lp1102
S'Fort Dearborn Dr & 31st St'
p1103
ag5
(S'41.83855600000000000'
p1104
tp1105
Rp1106
ag5
(S'-87.60821800000000000'
p1107
tp1108
Rp1109
aaa(lp1110
I135
a(lp1111
S'Halsted St & 21st St'
p1112
ag5
(S'41.85378000000000000'
p1113
tp1114
Rp1115
ag5
(S'-87.64665000000000000'
p1116
tp1117
Rp1118
aaa(lp1119
I167
a(lp1120
S'Damen Ave & Coulter St'
p1121
ag5
(S'41.84920000000000000'
p1122
tp1123
Rp1124
ag5
(S'-87.67564000000000000'
p1125
tp1126
Rp1127
aaa(lp1128
I147
a(lp1129
S'Indiana Ave & 26th St'
p1130
ag5
(S'41.84570000000000000'
p1131
tp1132
Rp1133
ag5
(S'-87.62248000000000000'
p1134
tp1135
Rp1136
aaa(lp1137
I129
a(lp1138
S'Blue Island Ave & 18th St'
p1139
ag5
(S'41.85755600000000000'
p1140
tp1141
Rp1142
ag5
(S'-87.66153500000000000'
p1143
tp1144
Rp1145
aaa(lp1146
I183
a(lp1147
S'Damen Ave & Augusta Blvd'
p1148
ag5
(S'41.89971400000000000'
p1149
tp1150
Rp1151
ag5
(S'-87.67723400000000000'
p1152
tp1153
Rp1154
aaa(lp1155
I153
a(lp1156
S'Southport Ave & Wellington Ave'
p1157
ag5
(S'41.93584000000000000'
p1158
tp1159
Rp1160
ag5
(S'-87.66370000000000000'
p1161
tp1162
Rp1163
aaa(lp1164
I162
a(lp1165
S'Damen Ave & Wellington Ave'
p1166
ag5
(S'41.93588000000000000'
p1167
tp1168
Rp1169
ag5
(S'-87.67842000000000000'
p1170
tp1171
Rp1172
aaa(lp1173
I116
a(lp1174
S'Western Ave & Winnebago Ave'
p1175
ag5
(S'41.91553300000000000'
p1176
tp1177
Rp1178
ag5
(S'-87.68705100000000000'
p1179
tp1180
Rp1181
aaa(lp1182
I171
a(lp1183
S'May St & Cullerton St'
p1184
ag5
(S'41.85513600000000000'
p1185
tp1186
Rp1187
ag5
(S'-87.65412700000000000'
p1188
tp1189
Rp1190
aaa(lp1191
I130
a(lp1192
S'Damen Ave & Division St'
p1193
ag5
(S'41.90331000000000000'
p1194
tp1195
Rp1196
ag5
(S'-87.67695000000000000'
p1197
tp1198
Rp1199
aaa(lp1200
I185
a(lp1201
S'Stave St & Armitage Ave'
p1202
ag5
(S'41.91774100000000000'
p1203
tp1204
Rp1205
ag5
(S'-87.69139200000000000'
p1206
tp1207
Rp1208
aaa(lp1209
I174
a(lp1210
S'Canal St & Madison St'
p1211
ag5
(S'41.88209100000000000'
p1212
tp1213
Rp1214
ag5
(S'-87.63983300000000000'
p1215
tp1216
Rp1217
aaa(lp1218
I160
a(lp1219
S'Campbell Ave & North Ave'
p1220
ag5
(S'41.91053500000000000'
p1221
tp1222
Rp1223
ag5
(S'-87.68955600000000000'
p1224
tp1225
Rp1226
aaa(lp1227
I158
a(lp1228
S'Milwaukee Ave & Wabansia Ave'
p1229
ag5
(S'41.91261600000000000'
p1230
tp1231
Rp1232
ag5
(S'-87.68139100000000000'
p1233
tp1234
Rp1235
aaa(lp1236
I186
a(lp1237
S'Ogden Ave & Race Ave'
p1238
ag5
(S'41.89179500000000000'
p1239
tp1240
Rp1241
ag5
(S'-87.65875100000000000'
p1242
tp1243
Rp1244
aaa(lp1245
I146
a(lp1246
S'Loomis St & Jackson Blvd'
p1247
ag5
(S'41.87794500000000000'
p1248
tp1249
Rp1250
ag5
(S'-87.66200700000000000'
p1251
tp1252
Rp1253
aaa(lp1254
I119
a(lp1255
S'Ashland Ave & Lake St'
p1256
ag5
(S'41.88541000000000000'
p1257
tp1258
Rp1259
ag5
(S'-87.66732000000000000'
p1260
tp1261
Rp1262
aaa(lp1263
I321
a(lp1264
S'Wabash Ave & 8th St'
p1265
ag5
(S'41.87196200000000000'
p1266
tp1267
Rp1268
ag5
(S'-87.62610600000000000'
p1269
tp1270
Rp1271
aaa(lp1272
I122
a(lp1273
S'Ogden Ave & Congress Pkwy'
p1274
ag5
(S'41.87501000000000000'
p1275
tp1276
Rp1277
ag5
(S'-87.67328000000000000'
p1278
tp1279
Rp1280
aaa(lp1281
I126
a(lp1282
S'Clark St & North Ave'
p1283
ag5
(S'41.91179100000000000'
p1284
tp1285
Rp1286
ag5
(S'-87.63184100000000000'
p1287
tp1288
Rp1289
aaa(lp1290
I163
a(lp1291
S'Paulina St & Diversey Pkwy'
p1292
ag5
(S'41.93186000000000000'
p1293
tp1294
Rp1295
ag5
(S'-87.67079000000000000'
p1296
tp1297
Rp1298
aaa(lp1299
I154
a(lp1300
S'Southport Ave & Belmont Ave'
p1301
ag5
(S'41.93949000000000000'
p1302
tp1303
Rp1304
ag5
(S'-87.66378000000000000'
p1305
tp1306
Rp1307
aaa(lp1308
I212
a(lp1309
S'Wells St & Ohio St'
p1310
ag5
(S'41.89223800000000000'
p1311
tp1312
Rp1313
ag5
(S'-87.63398500000000000'
p1314
tp1315
Rp1316
aaa(lp1317
I152
a(lp1318
S'Lincoln Ave & Diversey Pkwy'
p1319
ag5
(S'41.93222500000000000'
p1320
tp1321
Rp1322
ag5
(S'-87.65861700000000000'
p1323
tp1324
Rp1325
aaa(lp1326
I347
a(lp1327
S'Ashland Ave & Grace St'
p1328
ag5
(S'41.95068700000000000'
p1329
tp1330
Rp1331
ag5
(S'-87.66870000000000000'
p1332
tp1333
Rp1334
aaa(lp1335
I137
a(lp1336
S'Morgan Ave & 14th Pl'
p1337
ag5
(S'41.86237800000000000'
p1338
tp1339
Rp1340
ag5
(S'-87.65106200000000000'
p1341
tp1342
Rp1343
aaa(lp1344
I136
a(lp1345
S'Racine Ave & 13th St'
p1346
ag5
(S'41.86505400000000000'
p1347
tp1348
Rp1349
ag5
(S'-87.65695900000000000'
p1350
tp1351
Rp1352
aaa(lp1353
I173
a(lp1354
S'Mies van der Rohe Way & Chicago Ave'
p1355
ag5
(S'41.89691000000000000'
p1356
tp1357
Rp1358
ag5
(S'-87.62174300000000000'
p1359
tp1360
Rp1361
aaa(lp1362
I176
a(lp1363
S'Clark St & Elm St'
p1364
ag5
(S'41.90323300000000000'
p1365
tp1366
Rp1367
ag5
(S'-87.63125300000000000'
p1368
tp1369
Rp1370
aaa(lp1371
I118
a(lp1372
S'Sedgwick St & North Ave'
p1373
ag5
(S'41.91057900000000000'
p1374
tp1375
Rp1376
ag5
(S'-87.63861800000000000'
p1377
tp1378
Rp1379
aaa(lp1380
I224
a(lp1381
S'Halsted St & Willow St'
p1382
ag5
(S'41.91377800000000000'
p1383
tp1384
Rp1385
ag5
(S'-87.64884000000000000'
p1386
tp1387
Rp1388
aaa(lp1389
I110
a(lp1390
S'State St & Erie St'
p1391
ag5
(S'41.89397500000000000'
p1392
tp1393
Rp1394
ag5
(S'-87.62862300000000000'
p1395
tp1396
Rp1397
aaa(lp1398
I140
a(lp1399
S'Dearborn Pkwy & Delaware Pl'
p1400
ag5
(S'41.89900700000000000'
p1401
tp1402
Rp1403
ag5
(S'-87.62992800000000000'
p1404
tp1405
Rp1406
aaa(lp1407
I106
a(lp1408
S'State St & Pearson St'
p1409
ag5
(S'41.89744800000000000'
p1410
tp1411
Rp1412
ag5
(S'-87.62872200000000000'
p1413
tp1414
Rp1415
aaa(lp1416
I157
a(lp1417
S'Lake Shore Dr & Wellington Ave'
p1418
ag5
(S'41.93666900000000000'
p1419
tp1420
Rp1421
ag5
(S'-87.63679400000000000'
p1422
tp1423
Rp1424
aaa(lp1425
I111
a(lp1426
S'Sedgwick St & Huron St'
p1427
ag5
(S'41.89466600000000000'
p1428
tp1429
Rp1430
ag5
(S'-87.63843700000000000'
p1431
tp1432
Rp1433
aaa(lp1434
I114
a(lp1435
S'Sheffield Ave & Addison St'
p1436
ag5
(S'41.94688000000000000'
p1437
tp1438
Rp1439
ag5
(S'-87.65445000000000000'
p1440
tp1441
Rp1442
aaa(lp1443
I117
a(lp1444
S'Wilton Ave & Belmont Ave'
p1445
ag5
(S'41.94018000000000000'
p1446
tp1447
Rp1448
ag5
(S'-87.65304000000000000'
p1449
tp1450
Rp1451
aaa(lp1452
I233
a(lp1453
S'Sangamon St & Washington Blvd'
p1454
ag5
(S'41.88300400000000000'
p1455
tp1456
Rp1457
ag5
(S'-87.65114800000000000'
p1458
tp1459
Rp1460
aaa(lp1461
I144
a(lp1462
S'Larrabee St & Webster Ave'
p1463
ag5
(S'41.92175000000000000'
p1464
tp1465
Rp1466
ag5
(S'-87.64401000000000000'
p1467
tp1468
Rp1469
aaa(lp1470
I229
a(lp1471
S'Southport Ave & Roscoe St'
p1472
ag5
(S'41.94373900000000000'
p1473
tp1474
Rp1475
ag5
(S'-87.66402000000000000'
p1476
tp1477
Rp1478
aaa(lp1479
I156
a(lp1480
S'Clark St & Wellington Ave'
p1481
ag5
(S'41.93649682000000000'
p1482
tp1483
Rp1484
ag5
(S'-87.64753866000000000'
p1485
tp1486
Rp1487
aaa(lp1488
I143
a(lp1489
S'Sedgwick St & Webster Ave'
p1490
ag5
(S'41.92197000000000000'
p1491
tp1492
Rp1493
ag5
(S'-87.63854000000000000'
p1494
tp1495
Rp1496
aaa(lp1497
I168
a(lp1498
S'Michigan Ave & 14th St'
p1499
ag5
(S'41.86405900000000000'
p1500
tp1501
Rp1502
ag5
(S'-87.62372700000000000'
p1503
tp1504
Rp1505
aaa(lp1506
I175
a(lp1507
S'Wells St & Polk St'
p1508
ag5
(S'41.87237300000000000'
p1509
tp1510
Rp1511
ag5
(S'-87.63352300000000000'
p1512
tp1513
Rp1514
aaa(lp1515
I128
a(lp1516
S'Damen Ave & Chicago Ave'
p1517
ag5
(S'41.89576900000000000'
p1518
tp1519
Rp1520
ag5
(S'-87.67722000000000000'
p1521
tp1522
Rp1523
aaa(lp1524
I314
a(lp1525
S'Ravenswood Ave & Berteau Ave'
p1526
ag5
(S'41.95792100000000000'
p1527
tp1528
Rp1529
ag5
(S'-87.67356700000000000'
p1530
tp1531
Rp1532
aaa(lp1533
I124
a(lp1534
S'Damen Ave & Cullerton St'
p1535
ag5
(S'41.85504800000000000'
p1536
tp1537
Rp1538
ag5
(S'-87.67572600000000000'
p1539
tp1540
Rp1541
aaa(lp1542
I35
a(lp1543
S'Streeter Dr & Illinois St'
p1544
ag5
(S'41.89107100000000000'
p1545
tp1546
Rp1547
ag5
(S'-87.61220000000000000'
p1548
tp1549
Rp1550
aaa(lp1551
I138
a(lp1552
S'Clybourn Ave & Division St'
p1553
ag5
(S'41.90450900000000000'
p1554
tp1555
Rp1556
ag5
(S'-87.64050000000000000'
p1557
tp1558
Rp1559
aaa(lp1560
I184
a(lp1561
S'State St & 35th St'
p1562
ag5
(S'41.83104000000000000'
p1563
tp1564
Rp1565
ag5
(S'-87.62688000000000000'
p1566
tp1567
Rp1568
aaa(lp1569
I109
a(lp1570
S'900 W Harrison'
p1571
ag5
(S'41.87450000000000000'
p1572
tp1573
Rp1574
ag5
(S'-87.64980000000000000'
p1575
tp1576
Rp1577
aaa(lp1578
I120
a(lp1579
S'Wentworth Ave & Archer Ave'
p1580
ag5
(S'41.85456400000000000'
p1581
tp1582
Rp1583
ag5
(S'-87.63193700000000000'
p1584
tp1585
Rp1586
aaa(lp1587
I191
a(lp1588
S'Canal St & Monroe St'
p1589
ag5
(S'41.88070000000000000'
p1590
tp1591
Rp1592
ag5
(S'-87.63947000000000000'
p1593
tp1594
Rp1595
aaa(lp1596
I196
a(lp1597
S'Cityfront Plaza & N Water St'
p1598
ag5
(S'41.88987500000000000'
p1599
tp1600
Rp1601
ag5
(S'-87.62199400000000000'
p1602
tp1603
Rp1604
aaa(lp1605
I194
a(lp1606
S'State St & Wacker Dr'
p1607
ag5
(S'41.88715500000000000'
p1608
tp1609
Rp1610
ag5
(S'-87.62775000000000000'
p1611
tp1612
Rp1613
aaa(lp1614
I199
a(lp1615
S'Wabash Ave & Grand Ave'
p1616
ag5
(S'41.89173800000000000'
p1617
tp1618
Rp1619
ag5
(S'-87.62693700000000000'
p1620
tp1621
Rp1622
aaa(lp1623
I197
a(lp1624
S'Michigan Ave & Madison St'
p1625
ag5
(S'41.88213400000000000'
p1626
tp1627
Rp1628
ag5
(S'-87.62512500000000000'
p1629
tp1630
Rp1631
aaa(lp1632
I198
a(lp1633
S'Halsted St & Madison St'
p1634
ag5
(S'41.88175000000000000'
p1635
tp1636
Rp1637
ag5
(S'-87.64780000000000000'
p1638
tp1639
Rp1640
aaa(lp1641
I240
a(lp1642
S'Sheridan Rd & Irving Park Rd'
p1643
ag5
(S'41.95434000000000000'
p1644
tp1645
Rp1646
ag5
(S'-87.65460100000000000'
p1647
tp1648
Rp1649
aaa(lp1650
I202
a(lp1651
S'Halsted St & 18th St'
p1652
ag5
(S'41.85749900000000000'
p1653
tp1654
Rp1655
ag5
(S'-87.64627700000000000'
p1656
tp1657
Rp1658
aaa(lp1659
I177
a(lp1660
S'Theater on the Lake'
p1661
ag5
(S'41.92627700000000000'
p1662
tp1663
Rp1664
ag5
(S'-87.63083400000000000'
p1665
tp1666
Rp1667
aaa(lp1668
I200
a(lp1669
S'King Dr & 47th St'
p1670
ag5
(S'41.80985100000000000'
p1671
tp1672
Rp1673
ag5
(S'-87.61627900000000000'
p1674
tp1675
Rp1676
aaa(lp1677
I205
a(lp1678
S'Paulina St & 18th St'
p1679
ag5
(S'41.85790100000000000'
p1680
tp1681
Rp1682
ag5
(S'-87.66874500000000000'
p1683
tp1684
Rp1685
aaa(lp1686
I206
a(lp1687
S'Halsted St & Archer Ave'
p1688
ag5
(S'41.84720300000000000'
p1689
tp1690
Rp1691
ag5
(S'-87.64679500000000000'
p1692
tp1693
Rp1694
aaa(lp1695
I204
a(lp1696
S'Prairie Ave & Garfield Blvd'
p1697
ag5
(S'41.79510000000000000'
p1698
tp1699
Rp1700
ag5
(S'-87.61936000000000000'
p1701
tp1702
Rp1703
aaa(lp1704
I211
a(lp1705
S'St Clair St & Erie St'
p1706
ag5
(S'41.89444800000000000'
p1707
tp1708
Rp1709
ag5
(S'-87.62266300000000000'
p1710
tp1711
Rp1712
aaa(lp1713
I215
a(lp1714
S'Damen Ave & Madison St'
p1715
ag5
(S'41.88137000000000000'
p1716
tp1717
Rp1718
ag5
(S'-87.67493000000000000'
p1719
tp1720
Rp1721
aaa(lp1722
I207
a(lp1723
S'Emerald Ave & 28th St'
p1724
ag5
(S'41.84358000000000000'
p1725
tp1726
Rp1727
ag5
(S'-87.64536800000000000'
p1728
tp1729
Rp1730
aaa(lp1731
I201
a(lp1732
S'Indiana Ave & 40th St'
p1733
ag5
(S'41.82168000000000000'
p1734
tp1735
Rp1736
ag5
(S'-87.62160000000000000'
p1737
tp1738
Rp1739
aaa(lp1740
I203
a(lp1741
S'Western Ave & 21st St'
p1742
ag5
(S'41.85394000000000000'
p1743
tp1744
Rp1745
ag5
(S'-87.68524300000000000'
p1746
tp1747
Rp1748
aaa(lp1749
I210
a(lp1750
S'Ashland Ave & Division St'
p1751
ag5
(S'41.90345600000000000'
p1752
tp1753
Rp1754
ag5
(S'-87.66777000000000000'
p1755
tp1756
Rp1757
aaa(lp1758
I217
a(lp1759
S'May St & Fulton St'
p1760
ag5
(S'41.88677300000000000'
p1761
tp1762
Rp1763
ag5
(S'-87.65600100000000000'
p1764
tp1765
Rp1766
aaa(lp1767
I209
a(lp1768
S'Normal Ave & Archer Ave'
p1769
ag5
(S'41.84952700000000000'
p1770
tp1771
Rp1772
ag5
(S'-87.64059100000000000'
p1773
tp1774
Rp1775
aaa(lp1776
I214
a(lp1777
S'Damen Ave & Grand Ave'
p1778
ag5
(S'41.89122000000000000'
p1779
tp1780
Rp1781
ag5
(S'-87.67686000000000000'
p1782
tp1783
Rp1784
aaa(lp1785
I216
a(lp1786
S'California Ave & Division St'
p1787
ag5
(S'41.90302900000000000'
p1788
tp1789
Rp1790
ag5
(S'-87.69747400000000000'
p1791
tp1792
Rp1793
aaa(lp1794
I213
a(lp1795
S'Leavitt St & North Ave'
p1796
ag5
(S'41.91065200000000000'
p1797
tp1798
Rp1799
ag5
(S'-87.68240000000000000'
p1800
tp1801
Rp1802
aaa(lp1803
I208
a(lp1804
S'Ashland Ave & 21st St'
p1805
ag5
(S'41.85381000000000000'
p1806
tp1807
Rp1808
ag5
(S'-87.66589700000000000'
p1809
tp1810
Rp1811
aaa(lp1812
I225
a(lp1813
S'Halsted St & Dickens Ave'
p1814
ag5
(S'41.91993600000000000'
p1815
tp1816
Rp1817
ag5
(S'-87.64883000000000000'
p1818
tp1819
Rp1820
aaa(lp1821
I226
a(lp1822
S'Racine Ave & Belmont Ave'
p1823
ag5
(S'41.93974300000000000'
p1824
tp1825
Rp1826
ag5
(S'-87.65886500000000000'
p1827
tp1828
Rp1829
aaa(lp1830
I227
a(lp1831
S'Southport Ave & Waveland Ave'
p1832
ag5
(S'41.94815000000000000'
p1833
tp1834
Rp1835
ag5
(S'-87.66394000000000000'
p1836
tp1837
Rp1838
aaa(lp1839
I219
a(lp1840
S'Damen Ave & Cortland St'
p1841
ag5
(S'41.91602700000000000'
p1842
tp1843
Rp1844
ag5
(S'-87.67741100000000000'
p1845
tp1846
Rp1847
aaa(lp1848
I230
a(lp1849
S'Lincoln Ave & Roscoe St'
p1850
ag5
(S'41.94334000000000000'
p1851
tp1852
Rp1853
ag5
(S'-87.67097000000000000'
p1854
tp1855
Rp1856
aaa(lp1857
I231
a(lp1858
S'Sheridan Rd & Montrose Ave'
p1859
ag5
(S'41.96167000000000000'
p1860
tp1861
Rp1862
ag5
(S'-87.65464000000000000'
p1863
tp1864
Rp1865
aaa(lp1866
I237
a(lp1867
S'Martin Luther King Dr & 29th St'
p1868
ag5
(S'41.84205200000000000'
p1869
tp1870
Rp1871
ag5
(S'-87.61700000000000000'
p1872
tp1873
Rp1874
aaa(lp1875
I228
a(lp1876
S'Damen Ave & Melrose Ave'
p1877
ag5
(S'41.94060000000000000'
p1878
tp1879
Rp1880
ag5
(S'-87.67850000000000000'
p1881
tp1882
Rp1883
aaa(lp1884
I239
a(lp1885
S'Western Ave & Leland Ave'
p1886
ag5
(S'41.96655500000000000'
p1887
tp1888
Rp1889
ag5
(S'-87.68848700000000000'
p1890
tp1891
Rp1892
aaa(lp1893
I234
a(lp1894
S'Clark St & Montrose Ave'
p1895
ag5
(S'41.96158800000000000'
p1896
tp1897
Rp1898
ag5
(S'-87.66603600000000000'
p1899
tp1900
Rp1901
aaa(lp1902
I236
a(lp1903
S'Sedgwick St & Schiller St'
p1904
ag5
(S'41.90757600000000000'
p1905
tp1906
Rp1907
ag5
(S'-87.63851700000000000'
p1908
tp1909
Rp1910
aaa(lp1911
I223
a(lp1912
S'Clifton Ave & Armitage Ave'
p1913
ag5
(S'41.91821600000000000'
p1914
tp1915
Rp1916
ag5
(S'-87.65693600000000000'
p1917
tp1918
Rp1919
aaa(lp1920
I241
a(lp1921
S'Morgan St & Polk St'
p1922
ag5
(S'41.87173700000000000'
p1923
tp1924
Rp1925
ag5
(S'-87.65103000000000000'
p1926
tp1927
Rp1928
aaa(lp1929
I238
a(lp1930
S'Ravenswood Ave & Montrose Ave'
p1931
ag5
(S'41.96162600000000000'
p1932
tp1933
Rp1934
ag5
(S'-87.67410100000000000'
p1935
tp1936
Rp1937
aaa(lp1938
I243
a(lp1939
S'Lincoln Ave & Leavitt St'
p1940
ag5
(S'41.96239100000000000'
p1941
tp1942
Rp1943
ag5
(S'-87.68414600000000000'
p1944
tp1945
Rp1946
aaa(lp1947
I242
a(lp1948
S'Damen Ave & Leland Ave'
p1949
ag5
(S'41.96709400000000000'
p1950
tp1951
Rp1952
ag5
(S'-87.67902800000000000'
p1953
tp1954
Rp1955
aaa(lp1956
I222
a(lp1957
S'Milwaukee Ave & Rockwell St'
p1958
ag5
(S'41.92019500000000000'
p1959
tp1960
Rp1961
ag5
(S'-87.69303300000000000'
p1962
tp1963
Rp1964
aaa(lp1965
I218
a(lp1966
S'Wells St & 19th St'
p1967
ag5
(S'41.85680200000000000'
p1968
tp1969
Rp1970
ag5
(S'-87.63387900000000000'
p1971
tp1972
Rp1973
aaa(lp1974
I248
a(lp1975
S'Woodlawn Ave & 55th St'
p1976
ag5
(S'41.79526400000000000'
p1977
tp1978
Rp1979
ag5
(S'-87.59647100000000000'
p1980
tp1981
Rp1982
aaa(lp1983
I247
a(lp1984
S'Shore Drive & 55th St'
p1985
ag5
(S'41.79521200000000000'
p1986
tp1987
Rp1988
ag5
(S'-87.58071500000000000'
p1989
tp1990
Rp1991
aaa(lp1992
I193
a(lp1993
S'State St & 29th St'
p1994
ag5
(S'41.84170700000000000'
p1995
tp1996
Rp1997
ag5
(S'-87.62693800000000000'
p1998
tp1999
Rp2000
aaa(lp2001
I245
a(lp2002
S'Clarendon Ave & Junior Ter'
p2003
ag5
(S'41.96100400000000000'
p2004
tp2005
Rp2006
ag5
(S'-87.64960300000000000'
p2007
tp2008
Rp2009
aaa(lp2010
I246
a(lp2011
S'Ashland Ave & Belle Plaine Ave'
p2012
ag5
(S'41.95606100000000000'
p2013
tp2014
Rp2015
ag5
(S'-87.66886900000000000'
p2016
tp2017
Rp2018
aaa(lp2019
I342
a(lp2020
S'Wolcott Ave & Polk St'
p2021
ag5
(S'41.87126200000000000'
p2022
tp2023
Rp2024
ag5
(S'-87.67368800000000000'
p2025
tp2026
Rp2027
aaa(lp2028
I148
a(lp2029
S'State St & 33rd St'
p2030
ag5
(S'41.83473400000000000'
p2031
tp2032
Rp2033
ag5
(S'-87.62581300000000000'
p2034
tp2035
Rp2036
aaa(lp2037
I259
a(lp2038
S'California Ave & Francis Pl'
p2039
ag5
(S'41.91855000000000000'
p2040
tp2041
Rp2042
ag5
(S'-87.69723000000000000'
p2043
tp2044
Rp2045
aaa(lp2046
I261
a(lp2047
S'Hermitage Ave & Polk St'
p2048
ag5
(S'41.87151400000000000'
p2049
tp2050
Rp2051
ag5
(S'-87.66988600000000000'
p2052
tp2053
Rp2054
aaa(lp2055
I113
a(lp2056
S'Bissell St & Armitage Ave'
p2057
ag5
(S'41.91844000000000000'
p2058
tp2059
Rp2060
ag5
(S'-87.65222000000000000'
p2061
tp2062
Rp2063
aaa(lp2064
I256
a(lp2065
S'Broadway & Sheridan Rd'
p2066
ag5
(S'41.95283300000000000'
p2067
tp2068
Rp2069
ag5
(S'-87.64999300000000000'
p2070
tp2071
Rp2072
aaa(lp2073
I253
a(lp2074
S'Clifton Ave & Lawrence Ave'
p2075
ag5
(S'41.96887300000000000'
p2076
tp2077
Rp2078
ag5
(S'-87.65885700000000000'
p2079
tp2080
Rp2081
aaa(lp2082
I132
a(lp2083
S'Wentworth Ave & 24th St'
p2084
ag5
(S'41.84923700000000000'
p2085
tp2086
Rp2087
ag5
(S'-87.63171500000000000'
p2088
tp2089
Rp2090
aaa(lp2091
I338
a(lp2092
S'Calumet Ave & 18th St'
p2093
ag5
(S'41.85761100000000000'
p2094
tp2095
Rp2096
ag5
(S'-87.61940700000000000'
p2097
tp2098
Rp2099
aaa(lp2100
I292
a(lp2101
S'Southport Ave & Clark St'
p2102
ag5
(S'41.95708100000000000'
p2103
tp2104
Rp2105
ag5
(S'-87.66419900000000000'
p2106
tp2107
Rp2108
aaa(lp2109
I254
a(lp2110
S'Pine Grove Ave & Irving Park Rd'
p2111
ag5
(S'41.95438300000000000'
p2112
tp2113
Rp2114
ag5
(S'-87.64804300000000000'
p2115
tp2116
Rp2117
aaa(lp2118
I258
a(lp2119
S'Logan Blvd & Elston Ave'
p2120
ag5
(S'41.93058400000000000'
p2121
tp2122
Rp2123
ag5
(S'-87.68512600000000000'
p2124
tp2125
Rp2126
aaa(lp2127
I257
a(lp2128
S'Lincoln Ave & Waveland Ave'
p2129
ag5
(S'41.94911000000000000'
p2130
tp2131
Rp2132
ag5
(S'-87.67511200000000000'
p2133
tp2134
Rp2135
aaa(lp2136
I277
a(lp2137
S'Ashland Ave & Grand Ave'
p2138
ag5
(S'41.89107200000000000'
p2139
tp2140
Rp2141
ag5
(S'-87.66661100000000000'
p2142
tp2143
Rp2144
aaa(lp2145
I268
a(lp2146
S'Lake Shore Dr & North Blvd'
p2147
ag5
(S'41.91172200000000000'
p2148
tp2149
Rp2150
ag5
(S'-87.62680400000000000'
p2151
tp2152
Rp2153
aaa(lp2154
I271
a(lp2155
S'Cottage Grove Ave & 43rd St'
p2156
ag5
(S'41.81649900000000000'
p2157
tp2158
Rp2159
ag5
(S'-87.60658200000000000'
p2160
tp2161
Rp2162
aaa(lp2163
I275
a(lp2164
S'Ashland Ave & 13th St'
p2165
ag5
(S'41.86523400000000000'
p2166
tp2167
Rp2168
ag5
(S'-87.66650700000000000'
p2169
tp2170
Rp2171
aaa(lp2172
I276
a(lp2173
S'California Ave & North Ave'
p2174
ag5
(S'41.91044000000000000'
p2175
tp2176
Rp2177
ag5
(S'-87.69720000000000000'
p2178
tp2179
Rp2180
aaa(lp2181
I272
a(lp2182
S'Indiana Ave & 31st St'
p2183
ag5
(S'41.83884200000000000'
p2184
tp2185
Rp2186
ag5
(S'-87.62185700000000000'
p2187
tp2188
Rp2189
aaa(lp2190
I274
a(lp2191
S'Racine Ave & 15th St'
p2192
ag5
(S'41.86126700000000000'
p2193
tp2194
Rp2195
ag5
(S'-87.65662500000000000'
p2196
tp2197
Rp2198
aaa(lp2199
I281
a(lp2200
S'Western Ave & 24th St'
p2201
ag5
(S'41.84847000000000000'
p2202
tp2203
Rp2204
ag5
(S'-87.68510900000000000'
p2205
tp2206
Rp2207
aaa(lp2208
I287
a(lp2209
S'Franklin St & Arcade Pl'
p2210
ag5
(S'41.88113100000000000'
p2211
tp2212
Rp2213
ag5
(S'-87.63518500000000000'
p2214
tp2215
Rp2216
aaa(lp2217
I291
a(lp2218
S'Wells St & Evergreen Ave'
p2219
ag5
(S'41.90672400000000000'
p2220
tp2221
Rp2222
ag5
(S'-87.63483000000000000'
p2223
tp2224
Rp2225
aaa(lp2226
I296
a(lp2227
S'Broadway & Belmont Ave'
p2228
ag5
(S'41.94010600000000000'
p2229
tp2230
Rp2231
ag5
(S'-87.64545100000000000'
p2232
tp2233
Rp2234
aaa(lp2235
I282
a(lp2236
S'Halsted St & Maxwell St'
p2237
ag5
(S'41.86458000000000000'
p2238
tp2239
Rp2240
ag5
(S'-87.64693000000000000'
p2241
tp2242
Rp2243
aaa(lp2244
I280
a(lp2245
S'Morgan St & 31st St'
p2246
ag5
(S'41.83780000000000000'
p2247
tp2248
Rp2249
ag5
(S'-87.65114000000000000'
p2250
tp2251
Rp2252
aaa(lp2253
I288
a(lp2254
S'Larrabee St & Armitage Ave'
p2255
ag5
(S'41.91797000000000000'
p2256
tp2257
Rp2258
ag5
(S'-87.64368000000000000'
p2259
tp2260
Rp2261
aaa(lp2262
I278
a(lp2263
S'Wallace Ave & 35th St'
p2264
ag5
(S'41.83062900000000000'
p2265
tp2266
Rp2267
ag5
(S'-87.64129000000000000'
p2268
tp2269
Rp2270
aaa(lp2271
I284
a(lp2272
S'Michigan Ave & Jackson Blvd'
p2273
ag5
(S'41.87785000000000000'
p2274
tp2275
Rp2276
ag5
(S'-87.62408000000000000'
p2277
tp2278
Rp2279
aaa(lp2280
I283
a(lp2281
S'LaSalle St & Jackson Blvd'
p2282
ag5
(S'41.87817000000000000'
p2283
tp2284
Rp2285
ag5
(S'-87.63198500000000000'
p2286
tp2287
Rp2288
aaa(lp2289
I286
a(lp2290
S'Franklin St & Quincy St'
p2291
ag5
(S'41.87872400000000000'
p2292
tp2293
Rp2294
ag5
(S'-87.63479300000000000'
p2295
tp2296
Rp2297
aaa(lp2298
I289
a(lp2299
S'Wells St & Concord Ln'
p2300
ag5
(S'41.91220200000000000'
p2301
tp2302
Rp2303
ag5
(S'-87.63466400000000000'
p2304
tp2305
Rp2306
aaa(lp2307
I260
a(lp2308
S'Kedzie Ave & Milwaukee Ave'
p2309
ag5
(S'41.92956700000000000'
p2310
tp2311
Rp2312
ag5
(S'-87.70785700000000000'
p2313
tp2314
Rp2315
aaa(lp2316
I267
a(lp2317
S'Lake Park Ave & 47th St'
p2318
ag5
(S'41.80944300000000000'
p2319
tp2320
Rp2321
ag5
(S'-87.59187500000000000'
p2322
tp2323
Rp2324
aaa(lp2325
I263
a(lp2326
S'Rhodes Ave & 32nd St'
p2327
ag5
(S'41.83620800000000000'
p2328
tp2329
Rp2330
ag5
(S'-87.61353300000000000'
p2331
tp2332
Rp2333
aaa(lp2334
I265
a(lp2335
S'Cottage Grove Ave & Oakwood Blvd'
p2336
ag5
(S'41.82298500000000000'
p2337
tp2338
Rp2339
ag5
(S'-87.60710000000000000'
p2340
tp2341
Rp2342
aaa(lp2343
I264
a(lp2344
S'Stetson Ave & South Water St'
p2345
ag5
(S'41.88686100000000000'
p2346
tp2347
Rp2348
ag5
(S'-87.62269400000000000'
p2349
tp2350
Rp2351
aaa(lp2352
I293
a(lp2353
S'Broadway & Wilson Ave'
p2354
ag5
(S'41.96528700000000000'
p2355
tp2356
Rp2357
ag5
(S'-87.65877400000000000'
p2358
tp2359
Rp2360
aaa(lp2361
I294
a(lp2362
S'Broadway & Berwyn Ave'
p2363
ag5
(S'41.97835300000000000'
p2364
tp2365
Rp2366
ag5
(S'-87.65975300000000000'
p2367
tp2368
Rp2369
aaa(lp2370
I295
a(lp2371
S'Broadway & Argyle St'
p2372
ag5
(S'41.97297200000000000'
p2373
tp2374
Rp2375
ag5
(S'-87.65963700000000000'
p2376
tp2377
Rp2378
aaa(lp2379
I301
a(lp2380
S'Clark St & Schiller St'
p2381
ag5
(S'41.90799300000000000'
p2382
tp2383
Rp2384
ag5
(S'-87.63150100000000000'
p2385
tp2386
Rp2387
aaa(lp2388
I299
a(lp2389
S'Halsted St & Roscoe St'
p2390
ag5
(S'41.94366200000000000'
p2391
tp2392
Rp2393
ag5
(S'-87.64891700000000000'
p2394
tp2395
Rp2396
aaa(lp2397
I297
a(lp2398
S'Paulina St & Montrose Ave'
p2399
ag5
(S'41.96150700000000000'
p2400
tp2401
Rp2402
ag5
(S'-87.67138700000000000'
p2403
tp2404
Rp2405
aaa(lp2406
I303
a(lp2407
S'Broadway & Cornelia Ave'
p2408
ag5
(S'41.94551200000000000'
p2409
tp2410
Rp2411
ag5
(S'-87.64598000000000000'
p2412
tp2413
Rp2414
aaa(lp2415
I304
a(lp2416
S'Halsted St & Waveland Ave'
p2417
ag5
(S'41.94933300000000000'
p2418
tp2419
Rp2420
ag5
(S'-87.64963400000000000'
p2421
tp2422
Rp2423
aaa(lp2424
I309
a(lp2425
S'Leavitt St & Armitage Ave'
p2426
ag5
(S'41.91780500000000000'
p2427
tp2428
Rp2429
ag5
(S'-87.68243700000000000'
p2430
tp2431
Rp2432
aaa(lp2433
I302
a(lp2434
S'Sheffield Ave & Wrightwood Ave'
p2435
ag5
(S'41.92871200000000000'
p2436
tp2437
Rp2438
ag5
(S'-87.65383300000000000'
p2439
tp2440
Rp2441
aaa(lp2442
I310
a(lp2443
S'Damen Ave & Charleston St'
p2444
ag5
(S'41.92008200000000000'
p2445
tp2446
Rp2447
ag5
(S'-87.67785500000000000'
p2448
tp2449
Rp2450
aaa(lp2451
I315
a(lp2452
S'Leavitt St & Hirsch St'
p2453
ag5
(S'41.90671700000000000'
p2454
tp2455
Rp2456
ag5
(S'-87.68277900000000000'
p2457
tp2458
Rp2459
aaa(lp2460
I317
a(lp2461
S'Wood St & Taylor St'
p2462
ag5
(S'41.86915400000000000'
p2463
tp2464
Rp2465
ag5
(S'-87.67104500000000000'
p2466
tp2467
Rp2468
aaa(lp2469
I318
a(lp2470
S'Southport Ave & Irving Park Rd'
p2471
ag5
(S'41.95417700000000000'
p2472
tp2473
Rp2474
ag5
(S'-87.66435800000000000'
p2475
tp2476
Rp2477
aaa(lp2478
I323
a(lp2479
S'Sheridan Rd & Lawrence Ave'
p2480
ag5
(S'41.96951700000000000'
p2481
tp2482
Rp2483
ag5
(S'-87.65469100000000000'
p2484
tp2485
Rp2486
aaa(lp2487
I131
a(lp2488
S'Lincoln Ave & Belmont Ave'
p2489
ag5
(S'41.93936500000000000'
p2490
tp2491
Rp2492
ag5
(S'-87.66838500000000000'
p2493
tp2494
Rp2495
aaa(lp2496
I325
a(lp2497
S'Clark St & Winnemac Ave'
p2498
ag5
(S'41.97338500000000000'
p2499
tp2500
Rp2501
ag5
(S'-87.66836500000000000'
p2502
tp2503
Rp2504
aaa(lp2505
I306
a(lp2506
S'Sheridan Rd & Buena Ave'
p2507
ag5
(S'41.95840000000000000'
p2508
tp2509
Rp2510
ag5
(S'-87.65423000000000000'
p2511
tp2512
Rp2513
aaa(lp2514
I307
a(lp2515
S'Southport Ave & Clybourn Ave'
p2516
ag5
(S'41.92100400000000000'
p2517
tp2518
Rp2519
ag5
(S'-87.66325700000000000'
p2520
tp2521
Rp2522
aaa(lp2523
I327
a(lp2524
S'Sheffield Ave & Webster Ave'
p2525
ag5
(S'41.92168700000000000'
p2526
tp2527
Rp2528
ag5
(S'-87.65371400000000000'
p2529
tp2530
Rp2531
aaa(lp2532
I316
a(lp2533
S'Damen Ave & Sunnyside Ave'
p2534
ag5
(S'41.96325000000000000'
p2535
tp2536
Rp2537
ag5
(S'-87.67925800000000000'
p2538
tp2539
Rp2540
aaa(lp2541
I329
a(lp2542
S'Lake Shore Dr & Diversey Pkwy'
p2543
ag5
(S'41.93268400000000000'
p2544
tp2545
Rp2546
ag5
(S'-87.63625000000000000'
p2547
tp2548
Rp2549
aaa(lp2550
I308
a(lp2551
S'Seeley Ave & Roscoe St'
p2552
ag5
(S'41.94340300000000000'
p2553
tp2554
Rp2555
ag5
(S'-87.67961800000000000'
p2556
tp2557
Rp2558
aaa(lp2559
I334
a(lp2560
S'Lake Shore Dr & Belmont Ave'
p2561
ag5
(S'41.94077500000000000'
p2562
tp2563
Rp2564
ag5
(S'-87.63919200000000000'
p2565
tp2566
Rp2567
aaa(lp2568
I326
a(lp2569
S'Clark St & Leland Ave'
p2570
ag5
(S'41.96709600000000000'
p2571
tp2572
Rp2573
ag5
(S'-87.66742900000000000'
p2574
tp2575
Rp2576
aaa(lp2577
I333
a(lp2578
S'Ashland Ave & Blackhawk St'
p2579
ag5
(S'41.90706600000000000'
p2580
tp2581
Rp2582
ag5
(S'-87.66725200000000000'
p2583
tp2584
Rp2585
aaa(lp2586
I337
a(lp2587
S'Clark St & Chicago Ave'
p2588
ag5
(S'41.89654400000000000'
p2589
tp2590
Rp2591
ag5
(S'-87.63093100000000000'
p2592
tp2593
Rp2594
aaa(lp2595
I332
a(lp2596
S'Halsted St & Diversey Pkwy'
p2597
ag5
(S'41.93334100000000000'
p2598
tp2599
Rp2600
ag5
(S'-87.64874700000000000'
p2601
tp2602
Rp2603
aaa(lp2604
I331
a(lp2605
S'Halsted St & Blackhawk St'
p2606
ag5
(S'41.90854000000000000'
p2607
tp2608
Rp2609
ag5
(S'-87.64856800000000000'
p2610
tp2611
Rp2612
aaa(lp2613
I339
a(lp2614
S'Emerald Ave & 31st St'
p2615
ag5
(S'41.83819800000000000'
p2616
tp2617
Rp2618
ag5
(S'-87.64514300000000000'
p2619
tp2620
Rp2621
aaa(lp2622
I298
a(lp2623
S'Lincoln Ave & Belle Plaine Ave'
p2624
ag5
(S'41.95592700000000000'
p2625
tp2626
Rp2627
ag5
(S'-87.67925900000000000'
p2628
tp2629
Rp2630
aaa(lp2631
I324
a(lp2632
S'Stockton Dr & Wrightwood Ave'
p2633
ag5
(S'41.93132000000000000'
p2634
tp2635
Rp2636
ag5
(S'-87.63874200000000000'
p2637
tp2638
Rp2639
aaa(lp2640
I345
a(lp2641
S'Lake Park Ave & 56th St'
p2642
ag5
(S'41.79324200000000000'
p2643
tp2644
Rp2645
ag5
(S'-87.58778200000000000'
p2646
tp2647
Rp2648
aaa(lp2649
I344
a(lp2650
S'Wolcott Ave & Lawrence Ave'
p2651
ag5
(S'41.96864100000000000'
p2652
tp2653
Rp2654
ag5
(S'-87.67633500000000000'
p2655
tp2656
Rp2657
aaa(lp2658
I290
a(lp2659
S'Kedzie Ave & Palmer Ct'
p2660
ag5
(S'41.92152500000000000'
p2661
tp2662
Rp2663
ag5
(S'-87.70732200000000000'
p2664
tp2665
Rp2666
aaa(lp2667
I346
a(lp2668
S'Ada St & Washington Blvd'
p2669
ag5
(S'41.88283000000000000'
p2670
tp2671
Rp2672
ag5
(S'-87.66120600000000000'
p2673
tp2674
Rp2675
aaa(lp2676
I336
a(lp2677
S'Cottage Grove Ave & 47th St'
p2678
ag5
(S'41.80985500000000000'
p2679
tp2680
Rp2681
ag5
(S'-87.60675500000000000'
p2682
tp2683
Rp2684
aaa(lp2685
I335
a(lp2686
S'Calumet Ave & 35th St'
p2687
ag5
(S'41.83137900000000000'
p2688
tp2689
Rp2690
ag5
(S'-87.61803400000000000'
p2691
tp2692
Rp2693
aaa(lp2694
I343
a(lp2695
S'Racine Ave & Wrightwood Ave'
p2696
ag5
(S'41.92888700000000000'
p2697
tp2698
Rp2699
ag5
(S'-87.65897100000000000'
p2700
tp2701
Rp2702
aaatp2703
Rp2704
.