ccollections
OrderedDict
p0
((lp1
(lp2
V00
p3
a(Vpartlycloudy
p4
V73.0
p5
tp6
aa(lp7
V01
p8
a(Vpartlycloudy
p9
V72.0
p10
tp11
aa(lp12
V02
p13
a(Vpartlycloudy
p14
V71.1
p15
tp16
aa(lp17
V03
p18
a(Vpartlycloudy
p19
V69.1
p20
tp21
aa(lp22
V04
p23
a(Vpartlycloudy
p24
V69.1
p25
tp26
aa(lp27
V05
p28
a(Vpartlycloudy
p29
V68.0
p30
tp31
aa(lp32
V06
p33
a(Vpartlycloudy
p34
V68.0
p35
tp36
aa(lp37
V07
p38
a(Vmostlycloudy
p39
V72.0
p40
tp41
aa(lp42
V08
p43
a(Vmostlycloudy
p44
V75.9
p45
tp46
aa(lp47
V09
p48
a(Vpartlycloudy
p49
V80.1
p50
tp51
aa(lp52
V10
p53
a(Vpartlycloudy
p54
V82.9
p55
tp56
aa(lp57
V11
p58
a(Vpartlycloudy
p59
V86.0
p60
tp61
aa(lp62
V12
p63
a(Vclear
p64
V87.1
p65
tp66
aa(lp67
V13
p68
a(Vclear
p69
V88.0
p70
tp71
aa(lp72
V14
p73
a(Vclear
p74
V89.1
p75
tp76
aa(lp77
V15
p78
a(Vclear
p79
V89.1
p80
tp81
aa(lp82
V16
p83
a(Vclear
p84
V88.0
p85
tp86
aa(lp87
V17
p88
a(Vclear
p89
V87.1
p90
tp91
aa(lp92
V18
p93
a(Vclear
p94
V84.9
p95
tp96
aa(lp97
V19
p98
a(Vclear
p99
V82.9
p100
tp101
aa(lp102
V20
p103
a(Vclear
p104
V82.0
p105
tp106
aa(lp107
V21
p108
a(Vclear
p109
V80.1
p110
tp111
aa(lp112
V22
p113
a(Vclear
p114
V78.1
p115
tp116
aa(lp117
V23
p118
a(Vclear
p119
V77.0
p120
tp121
aatp122
Rp123
.