ccollections
OrderedDict
p0
((lp1
(lp2
V00
p3
a(Vcloudy
p4
V75.9
p5
tp6
aa(lp7
V01
p8
a(Vrain
p9
V71.1
p10
tp11
aa(lp12
V02
p13
a(Vcloudy
p14
V69.1
p15
tp16
aa(lp17
V03
p18
a(Vpartlycloudy
p19
V69.1
p20
tp21
aa(lp22
V04
p23
a(Vmostlycloudy
p24
V69.1
p25
tp26
aa(lp27
V05
p28
a(Vcloudy
p29
V69.1
p30
tp31
aa(lp32
V06
p33
a(Vcloudy
p34
V68.0
p35
tp36
aa(lp37
V07
p38
a(Vcloudy
p39
V69.1
p40
tp41
aa(lp42
V08
p43
a(Vcloudy
p44
V70.0
p45
tp46
aa(lp47
V09
p48
a(Vcloudy
p49
V71.1
p50
tp51
aa(lp52
V10
p53
a(Vcloudy
p54
V71.1
p55
tp56
aa(lp57
V11
p58
a(Vcloudy
p59
V73.9
p60
tp61
aa(lp62
V12
p63
a(Vcloudy
p64
V75.9
p65
tp66
aa(lp67
V13
p68
a(Vcloudy
p69
V75.0
p70
tp71
aa(lp72
V14
p73
a(Vcloudy
p74
V73.9
p75
tp76
aa(lp77
V15
p78
a(Vcloudy
p79
V73.9
p80
tp81
aa(lp82
V16
p83
a(Vcloudy
p84
V72.0
p85
tp86
aa(lp87
V17
p88
a(Vcloudy
p89
V70.0
p90
tp91
aa(lp92
V18
p93
a(Vmostlycloudy
p94
V69.1
p95
tp96
aa(lp97
V19
p98
a(Vmostlycloudy
p99
V64.9
p100
tp101
aa(lp102
V20
p103
a(Vcloudy
p104
V63.0
p105
tp106
aa(lp107
V21
p108
a(Vcloudy
p109
V62.1
p110
tp111
aa(lp112
V22
p113
a(Vcloudy
p114
V61.0
p115
tp116
aa(lp117
V23
p118
a(Vcloudy
p119
V60.1
p120
tp121
aatp122
Rp123
.