ccollections
OrderedDict
p0
((lp1
(lp2
V00
p3
a(Vclear
p4
V81.0
p5
tp6
aa(lp7
V01
p8
a(Vclear
p9
V80.1
p10
tp11
aa(lp12
V02
p13
a(Vclear
p14
V79.0
p15
tp16
aa(lp17
V03
p18
a(Vclear
p19
V79.0
p20
tp21
aa(lp22
V04
p23
a(Vclear
p24
V78.1
p25
tp26
aa(lp27
V05
p28
a(Vpartlycloudy
p29
V78.1
p30
tp31
aa(lp32
V06
p33
a(Vpartlycloudy
p34
V79.0
p35
tp36
aa(lp37
V07
p38
a(Vpartlycloudy
p39
V82.0
p40
tp41
aa(lp42
V08
p43
a(Vpartlycloudy
p44
V86.0
p45
tp46
aa(lp47
V09
p48
a(Vpartlycloudy
p49
V87.1
p50
tp51
aa(lp52
V10
p53
a(Vpartlycloudy
p54
V90.0
p55
tp56
aa(lp57
V11
p58
a(Vpartlycloudy
p59
V90.0
p60
tp61
aa(lp62
V12
p63
a(Vpartlycloudy
p64
V91.9
p65
tp66
aa(lp67
V13
p68
a(Vpartlycloudy
p69
V93.9
p70
tp71
aa(lp72
V14
p73
a(Vmostlycloudy
p74
V91.9
p75
tp76
aa(lp77
V15
p78
a(Vmostlycloudy
p79
V93.0
p80
tp81
aa(lp82
V16
p83
a(Vmostlycloudy
p84
V93.0
p85
tp86
aa(lp87
V17
p88
a(Vmostlycloudy
p89
V93.0
p90
tp91
aa(lp92
V18
p93
a(Vpartlycloudy
p94
V91.0
p95
tp96
aa(lp97
V19
p98
a(Vpartlycloudy
p99
V90.0
p100
tp101
aa(lp102
V20
p103
a(Vpartlycloudy
p104
V89.1
p105
tp106
aa(lp107
V21
p108
a(Vclear
p109
V86.0
p110
tp111
aa(lp112
V22
p113
a(Vclear
p114
V84.9
p115
tp116
aa(lp117
V23
p118
a(Vclear
p119
V84.9
p120
tp121
aatp122
Rp123
.