ccollections
OrderedDict
p0
((lp1
(lp2
V00
p3
a(Vrain
p4
V53.1
p5
tp6
aa(lp7
V01
p8
a(Vrain
p9
V54.0
p10
tp11
aa(lp12
V02
p13
a(Vrain
p14
V55.0
p15
tp16
aa(lp17
V03
p18
a(Vrain
p19
V55.0
p20
tp21
aa(lp22
V04
p23
a(Vrain
p24
V55.0
p25
tp26
aa(lp27
V05
p28
a(Vrain
p29
V55.9
p30
tp31
aa(lp32
V06
p33
a(Vrain
p34
V55.9
p35
tp36
aa(lp37
V07
p38
a(Vrain
p39
V55.9
p40
tp41
aa(lp42
V08
p43
a(Vrain
p44
V55.9
p45
tp46
aa(lp47
V09
p48
a(Vrain
p49
V57.0
p50
tp51
aa(lp52
V10
p53
a(Vcloudy
p54
V57.0
p55
tp56
aa(lp57
V11
p58
a(Vrain
p59
V53.1
p60
tp61
aa(lp62
V12
p63
a(Vcloudy
p64
V48.0
p65
tp66
aa(lp67
V13
p68
a(Vcloudy
p69
V45.0
p70
tp71
aa(lp72
V14
p73
a(Vcloudy
p74
V44.1
p75
tp76
aa(lp77
V15
p78
a(Vcloudy
p79
V44.1
p80
tp81
aa(lp82
V16
p83
a(Vcloudy
p84
V43.0
p85
tp86
aa(lp87
V17
p88
a(Vmostlycloudy
p89
V43.0
p90
tp91
aa(lp92
V18
p93
a(Vpartlycloudy
p94
V42.1
p95
tp96
aa(lp97
V19
p98
a(Vmostlycloudy
p99
V42.1
p100
tp101
aa(lp102
V20
p103
a(Vpartlycloudy
p104
V41.0
p105
tp106
aa(lp107
V21
p108
a(Vclear
p109
V39.0
p110
tp111
aa(lp112
V22
p113
a(Vclear
p114
V37.9
p115
tp116
aa(lp117
V23
p118
a(Vclear
p119
V37.0
p120
tp121
aatp122
Rp123
.