ccollections
OrderedDict
p0
((lp1
(lp2
V00
p3
a(Vcloudy
p4
V37.9
p5
tp6
aa(lp7
V01
p8
a(Vcloudy
p9
V37.9
p10
tp11
aa(lp12
V02
p13
a(Vcloudy
p14
V37.9
p15
tp16
aa(lp17
V03
p18
a(Vcloudy
p19
V37.0
p20
tp21
aa(lp22
V04
p23
a(Vcloudy
p24
V36.0
p25
tp26
aa(lp27
V05
p28
a(Vcloudy
p29
V36.0
p30
tp31
aa(lp32
V06
p33
a(Vcloudy
p34
V36.0
p35
tp36
aa(lp37
V07
p38
a(Vmostlycloudy
p39
V34.0
p40
tp41
aa(lp42
V08
p43
a(Vcloudy
p44
V35.1
p45
tp46
aa(lp47
V09
p48
a(Vcloudy
p49
V33.1
p50
tp51
aa(lp52
V10
p53
a(Vrain
p54
V30.0
p55
tp56
aa(lp57
V11
p58
a(Vrain
p59
V28.9
p60
tp61
aa(lp62
V12
p63
a(Vrain
p64
V28.0
p65
tp66
aa(lp67
V13
p68
a(Vsnow
p69
V27.0
p70
tp71
aa(lp72
V14
p73
a(Vrain
p74
V26.1
p75
tp76
aa(lp77
V15
p78
a(Vcloudy
p79
V25.0
p80
tp81
aa(lp82
V16
p83
a(Vcloudy
p84
V24.1
p85
tp86
aa(lp87
V17
p88
a(Vcloudy
p89
V24.1
p90
tp91
aa(lp92
V18
p93
a(Vsnow
p94
V21.9
p95
tp96
aa(lp97
V19
p98
a(Vsnow
p99
V21.2
p100
tp101
aa(lp102
V20
p103
a(Vsnow
p104
V19.0
p105
tp106
aa(lp107
V21
p108
a(Vsnow
p109
V17.1
p110
tp111
aa(lp112
V22
p113
a(Vmostlycloudy
p114
V15.1
p115
tp116
aa(lp117
V23
p118
a(Vmostlycloudy
p119
V12.9
p120
tp121
aatp122
Rp123
.