ccollections
OrderedDict
p0
((lp1
(lp2
V00
p3
a(Vmostlycloudy
p4
V1.9
p5
tp6
aa(lp7
V01
p8
a(Vpartlycloudy
p9
V1.0
p10
tp11
aa(lp12
V02
p13
a(Vmostlycloudy
p14
V-0.9
p15
tp16
aa(lp17
V03
p18
a(Vpartlycloudy
p19
V-2.0
p20
tp21
aa(lp22
V04
p23
a(Vpartlycloudy
p24
V-2.9
p25
tp26
aa(lp27
V05
p28
a(Vmostlycloudy
p29
V-0.9
p30
tp31
aa(lp32
V06
p33
a(Vmostlycloudy
p34
V-0.9
p35
tp36
aa(lp37
V07
p38
a(Vcloudy
p39
V1.9
p40
tp41
aa(lp42
V08
p43
a(Vcloudy
p44
V6.1
p45
tp46
aa(lp47
V09
p48
a(Vcloudy
p49
V8.1
p50
tp51
aa(lp52
V10
p53
a(Vmostlycloudy
p54
V12.9
p55
tp56
aa(lp57
V11
p58
a(Vmostlycloudy
p59
V15.1
p60
tp61
aa(lp62
V12
p63
a(Vpartlycloudy
p64
V18.0
p65
tp66
aa(lp67
V13
p68
a(Vpartlycloudy
p69
V19.0
p70
tp71
aa(lp72
V14
p73
a(Vpartlycloudy
p74
V19.9
p75
tp76
aa(lp77
V15
p78
a(Vpartlycloudy
p79
V19.0
p80
tp81
aa(lp82
V16
p83
a(Vmostlycloudy
p84
V19.0
p85
tp86
aa(lp87
V17
p88
a(Vmostlycloudy
p89
V19.0
p90
tp91
aa(lp92
V18
p93
a(Vcloudy
p94
V19.0
p95
tp96
aa(lp97
V19
p98
a(Vmostlycloudy
p99
V19.0
p100
tp101
aa(lp102
V20
p103
a(Vpartlycloudy
p104
V18.0
p105
tp106
aa(lp107
V21
p108
a(Vmostlycloudy
p109
V18.0
p110
tp111
aa(lp112
V22
p113
a(Vpartlycloudy
p114
V17.1
p115
tp116
aa(lp117
V23
p118
a(Vmostlycloudy
p119
V17.1
p120
tp121
aatp122
Rp123
.