ccollections
OrderedDict
p0
((lp1
(lp2
V00
p3
a(Vcloudy
p4
V64.0
p5
tp6
aa(lp7
V01
p8
a(Vcloudy
p9
V64.9
p10
tp11
aa(lp12
V02
p13
a(Vcloudy
p14
V66.0
p15
tp16
aa(lp17
V03
p18
a(Vpartlycloudy
p19
V64.0
p20
tp21
aa(lp22
V04
p23
a(Vmostlycloudy
p24
V64.0
p25
tp26
aa(lp27
V05
p28
a(Vmostlycloudy
p29
V64.0
p30
tp31
aa(lp32
V06
p33
a(Vmostlycloudy
p34
V66.0
p35
tp36
aa(lp37
V07
p38
a(Vmostlycloudy
p39
V66.9
p40
tp41
aa(lp42
V08
p43
a(Vmostlycloudy
p44
V68.0
p45
tp46
aa(lp47
V09
p48
a(Vmostlycloudy
p49
V70.0
p50
tp51
aa(lp52
V10
p53
a(Vmostlycloudy
p54
V73.0
p55
tp56
aa(lp57
V11
p58
a(Vpartlycloudy
p59
V73.9
p60
tp61
aa(lp62
V12
p63
a(Vpartlycloudy
p64
V75.0
p65
tp66
aa(lp67
V13
p68
a(Vmostlycloudy
p69
V73.9
p70
tp71
aa(lp72
V14
p73
a(Vpartlycloudy
p74
V75.9
p75
tp76
aa(lp77
V15
p78
a(Vpartlycloudy
p79
V75.0
p80
tp81
aa(lp82
V16
p83
a(Vpartlycloudy
p84
V75.0
p85
tp86
aa(lp87
V17
p88
a(Vpartlycloudy
p89
V73.0
p90
tp91
aa(lp92
V18
p93
a(Vpartlycloudy
p94
V72.0
p95
tp96
aa(lp97
V19
p98
a(Vpartlycloudy
p99
V70.0
p100
tp101
aa(lp102
V20
p103
a(Vmostlycloudy
p104
V69.1
p105
tp106
aa(lp107
V21
p108
a(Vmostlycloudy
p109
V68.0
p110
tp111
aa(lp112
V22
p113
a(Vpartlycloudy
p114
V66.0
p115
tp116
aa(lp117
V23
p118
a(Vpartlycloudy
p119
V64.9
p120
tp121
aatp122
Rp123
.