ccollections
OrderedDict
p0
((lp1
(lp2
V00
p3
a(Vcloudy
p4
V17.1
p5
tp6
aa(lp7
V01
p8
a(Vcloudy
p9
V17.1
p10
tp11
aa(lp12
V02
p13
a(Vcloudy
p14
V17.1
p15
tp16
aa(lp17
V03
p18
a(Vmostlycloudy
p19
V17.1
p20
tp21
aa(lp22
V04
p23
a(Vcloudy
p24
V18.0
p25
tp26
aa(lp27
V05
p28
a(Vcloudy
p29
V18.0
p30
tp31
aa(lp32
V06
p33
a(Vcloudy
p34
V19.9
p35
tp36
aa(lp37
V07
p38
a(Vcloudy
p39
V23.0
p40
tp41
aa(lp42
V08
p43
a(Vcloudy
p44
V24.1
p45
tp46
aa(lp47
V09
p48
a(Vcloudy
p49
V24.1
p50
tp51
aa(lp52
V10
p53
a(Vsnow
p54
V24.1
p55
tp56
aa(lp57
V11
p58
a(Vsnow
p59
V24.1
p60
tp61
aa(lp62
V12
p63
a(Vsnow
p64
V24.1
p65
tp66
aa(lp67
V13
p68
a(Vsnow
p69
V25.0
p70
tp71
aa(lp72
V14
p73
a(Vsnow
p74
V25.0
p75
tp76
aa(lp77
V15
p78
a(Vsnow
p79
V25.0
p80
tp81
aa(lp82
V16
p83
a(Vsnow
p84
V25.0
p85
tp86
aa(lp87
V17
p88
a(Vsnow
p89
V25.0
p90
tp91
aa(lp92
V18
p93
a(Vsnow
p94
V25.0
p95
tp96
aa(lp97
V19
p98
a(Vsnow
p99
V25.0
p100
tp101
aa(lp102
V20
p103
a(Vsnow
p104
V25.0
p105
tp106
aa(lp107
V21
p108
a(Vsnow
p109
V25.0
p110
tp111
aa(lp112
V22
p113
a(Vsnow
p114
V25.0
p115
tp116
aa(lp117
V23
p118
a(Vcloudy
p119
V25.0
p120
tp121
aatp122
Rp123
.