ccollections
OrderedDict
p0
((lp1
(lp2
V00
p3
a(Vcloudy
p4
V60.1
p5
tp6
aa(lp7
V01
p8
a(Vmostlycloudy
p9
V59.0
p10
tp11
aa(lp12
V02
p13
a(Vmostlycloudy
p14
V57.0
p15
tp16
aa(lp17
V03
p18
a(Vcloudy
p19
V57.9
p20
tp21
aa(lp22
V04
p23
a(Vcloudy
p24
V57.9
p25
tp26
aa(lp27
V05
p28
a(Vcloudy
p29
V57.9
p30
tp31
aa(lp32
V06
p33
a(Vcloudy
p34
V57.9
p35
tp36
aa(lp37
V07
p38
a(Vpartlycloudy
p39
V55.9
p40
tp41
aa(lp42
V08
p43
a(Vhazy
p44
V61.0
p45
tp46
aa(lp47
V09
p48
a(Vpartlycloudy
p49
V64.0
p50
tp51
aa(lp52
V10
p53
a(Vpartlycloudy
p54
V66.9
p55
tp56
aa(lp57
V11
p58
a(Vpartlycloudy
p59
V71.1
p60
tp61
aa(lp62
V12
p63
a(Vpartlycloudy
p64
V72.0
p65
tp66
aa(lp67
V13
p68
a(Vpartlycloudy
p69
V73.0
p70
tp71
aatp72
Rp73
.