ccollections
OrderedDict
p0
((lp1
(lp2
V00
p3
a(Vcloudy
p4
V25.0
p5
tp6
aa(lp7
V01
p8
a(Vcloudy
p9
V24.1
p10
tp11
aa(lp12
V02
p13
a(Vcloudy
p14
V25.0
p15
tp16
aa(lp17
V03
p18
a(Vcloudy
p19
V25.0
p20
tp21
aa(lp22
V04
p23
a(Vcloudy
p24
V25.0
p25
tp26
aa(lp27
V05
p28
a(Vcloudy
p29
V25.0
p30
tp31
aa(lp32
V06
p33
a(Vcloudy
p34
V25.0
p35
tp36
aa(lp37
V07
p38
a(Vcloudy
p39
V26.1
p40
tp41
aa(lp42
V08
p43
a(Vmostlycloudy
p44
V27.0
p45
tp46
aa(lp47
V09
p48
a(Vpartlycloudy
p49
V28.9
p50
tp51
aa(lp52
V10
p53
a(Vpartlycloudy
p54
V30.9
p55
tp56
aa(lp57
V11
p58
a(Vmostlycloudy
p59
V32.0
p60
tp61
aa(lp62
V12
p63
a(Vpartlycloudy
p64
V33.1
p65
tp66
aa(lp67
V13
p68
a(Vpartlycloudy
p69
V34.0
p70
tp71
aa(lp72
V14
p73
a(Vmostlycloudy
p74
V34.0
p75
tp76
aa(lp77
V15
p78
a(Vmostlycloudy
p79
V33.1
p80
tp81
aa(lp82
V16
p83
a(Vpartlycloudy
p84
V30.9
p85
tp86
aa(lp87
V17
p88
a(Vclear
p89
V30.0
p90
tp91
aa(lp92
V18
p93
a(Vclear
p94
V28.0
p95
tp96
aa(lp97
V19
p98
a(Vclear
p99
V26.1
p100
tp101
aa(lp102
V20
p103
a(Vclear
p104
V24.1
p105
tp106
aa(lp107
V21
p108
a(Vpartlycloudy
p109
V23.0
p110
tp111
aa(lp112
V22
p113
a(Vpartlycloudy
p114
V24.1
p115
tp116
aa(lp117
V23
p118
a(Vclear
p119
V25.0
p120
tp121
aatp122
Rp123
.