ccollections
OrderedDict
p0
((lp1
(lp2
V00
p3
a(Vsnow
p4
V10.0
p5
tp6
aa(lp7
V01
p8
a(Vmostlycloudy
p9
V9.0
p10
tp11
aa(lp12
V02
p13
a(Vpartlycloudy
p14
V7.0
p15
tp16
aa(lp17
V03
p18
a(Vpartlycloudy
p19
V7.0
p20
tp21
aa(lp22
V04
p23
a(Vhazy
p24
V6.1
p25
tp26
aa(lp27
V05
p28
a(Vclear
p29
V5.0
p30
tp31
aa(lp32
V06
p33
a(Vpartlycloudy
p34
V3.9
p35
tp36
aa(lp37
V07
p38
a(Vpartlycloudy
p39
V3.2
p40
tp41
aa(lp42
V08
p43
a(Vpartlycloudy
p44
V6.8
p45
tp46
aa(lp47
V09
p48
a(Vpartlycloudy
p49
V8.6
p50
tp51
aa(lp52
V10
p53
a(Vmostlycloudy
p54
V10.0
p55
tp56
aa(lp57
V11
p58
a(Vmostlycloudy
p59
V10.9
p60
tp61
aa(lp62
V12
p63
a(Vcloudy
p64
V12.0
p65
tp66
aa(lp67
V13
p68
a(Vsnow
p69
V12.9
p70
tp71
aa(lp72
V14
p73
a(Vsnow
p74
V12.9
p75
tp76
aa(lp77
V15
p78
a(Vsnow
p79
V12.0
p80
tp81
aa(lp82
V16
p83
a(Vsnow
p84
V12.2
p85
tp86
aa(lp87
V17
p88
a(Vsnow
p89
V12.9
p90
tp91
aa(lp92
V18
p93
a(Vsnow
p94
V12.9
p95
tp96
aa(lp97
V19
p98
a(Vsnow
p99
V12.9
p100
tp101
aa(lp102
V20
p103
a(Vsnow
p104
V14.0
p105
tp106
aa(lp107
V21
p108
a(Vsnow
p109
V14.0
p110
tp111
aa(lp112
V22
p113
a(Vsnow
p114
V14.0
p115
tp116
aa(lp117
V23
p118
a(Vsnow
p119
V14.0
p120
tp121
aatp122
Rp123
.